; ModuleID = 'temp.bc'
source_filename = "../ac_lex_scanners.cc"
target datalayout = "e-m:o-i64:64-f80:128-n8:16:32:64-S128"
target triple = "x86_64-apple-macosx10.13.0"

%"class.altered_carbon::js::ACJsParser" = type { i32 (...)**, i8*, %"class.std::__1::basic_string", i8*, i8, i32, i8, i8, i32, i32, %"class.altered_carbon::js::ACLexState", %"struct.altered_carbon::js::ACLexPosition", %"struct.altered_carbon::js::ACLexPosition", %"struct.altered_carbon::js::ACLexPosition", %"class.std::__1::unique_ptr" }
%"class.std::__1::basic_string" = type { %"class.std::__1::__compressed_pair" }
%"class.std::__1::__compressed_pair" = type { %"struct.std::__1::__compressed_pair_elem" }
%"struct.std::__1::__compressed_pair_elem" = type { %"struct.std::__1::basic_string<char, std::__1::char_traits<char>, std::__1::allocator<char> >::__rep" }
%"struct.std::__1::basic_string<char, std::__1::char_traits<char>, std::__1::allocator<char> >::__rep" = type { %union.anon }
%union.anon = type { %"struct.std::__1::basic_string<char, std::__1::char_traits<char>, std::__1::allocator<char> >::__long" }
%"struct.std::__1::basic_string<char, std::__1::char_traits<char>, std::__1::allocator<char> >::__long" = type { i64, i64, i8* }
%"class.altered_carbon::js::ACLexState" = type { i32 (...)**, i32, %"struct.altered_carbon::js::BlockLevelState", i8, i8, %"class.std::__1::map", %"class.std::__1::vector" }
%"struct.altered_carbon::js::BlockLevelState" = type { i8, i8, i8 }
%"class.std::__1::map" = type { %"class.std::__1::__tree" }
%"class.std::__1::__tree" = type { %"class.std::__1::__tree_end_node"*, %"class.std::__1::__compressed_pair.2", %"class.std::__1::__compressed_pair.7" }
%"class.std::__1::__tree_end_node" = type { %"class.std::__1::__tree_node_base"* }
%"class.std::__1::__tree_node_base" = type <{ %"class.std::__1::__tree_end_node", %"class.std::__1::__tree_node_base"*, %"class.std::__1::__tree_end_node"*, i8, [7 x i8] }>
%"class.std::__1::__compressed_pair.2" = type { %"struct.std::__1::__compressed_pair_elem.3" }
%"struct.std::__1::__compressed_pair_elem.3" = type { %"class.std::__1::__tree_end_node" }
%"class.std::__1::__compressed_pair.7" = type { %"struct.std::__1::__compressed_pair_elem.8" }
%"struct.std::__1::__compressed_pair_elem.8" = type { i64 }
%"class.std::__1::vector" = type { %"class.std::__1::__vector_base" }
%"class.std::__1::__vector_base" = type { i32*, i32*, %"class.std::__1::__compressed_pair.10" }
%"class.std::__1::__compressed_pair.10" = type { %"struct.std::__1::__compressed_pair_elem.11" }
%"struct.std::__1::__compressed_pair_elem.11" = type { i32* }
%"struct.altered_carbon::js::ACLexPosition" = type { i32 (...)**, i64, i32, i64 }
%"class.std::__1::unique_ptr" = type { %"class.std::__1::__compressed_pair.15" }
%"class.std::__1::__compressed_pair.15" = type { %"struct.std::__1::__compressed_pair_elem.16" }
%"struct.std::__1::__compressed_pair_elem.16" = type { %"class.altered_carbon::js::ACLexToken"* }
%"class.altered_carbon::js::ACLexToken" = type { i32 (...)**, i32, i64, %"class.std::__1::basic_string_view", %"struct.altered_carbon::js::ACLexPosition", %"class.std::__1::basic_string.17" }
%"class.std::__1::basic_string_view" = type { i8*, i64 }
%"class.std::__1::basic_string.17" = type { %"class.std::__1::__compressed_pair.18" }
%"class.std::__1::__compressed_pair.18" = type { %"struct.std::__1::__compressed_pair_elem.19" }
%"struct.std::__1::__compressed_pair_elem.19" = type { %"struct.std::__1::basic_string<wchar_t, std::__1::char_traits<wchar_t>, std::__1::allocator<wchar_t> >::__rep" }
%"struct.std::__1::basic_string<wchar_t, std::__1::char_traits<wchar_t>, std::__1::allocator<wchar_t> >::__rep" = type { %union.anon.20 }
%union.anon.20 = type { %"struct.std::__1::basic_string<wchar_t, std::__1::char_traits<wchar_t>, std::__1::allocator<wchar_t> >::__long" }
%"struct.std::__1::basic_string<wchar_t, std::__1::char_traits<wchar_t>, std::__1::allocator<wchar_t> >::__long" = type { i64, i64, i32* }
%"struct.std::__1::__compressed_pair_elem.25" = type { i8 }

; Function Attrs: noinline nounwind optnone ssp uwtable
define signext i32 @_ZN14altered_carbon2js10ACJsParser26scanUnicodeCodePointEscapeEv(%"class.altered_carbon::js::ACJsParser"*) #0 align 2 !dbg !6886 {
  %2 = alloca %"class.altered_carbon::js::ACJsParser"*, align 8
  store %"class.altered_carbon::js::ACJsParser"* %0, %"class.altered_carbon::js::ACJsParser"** %2, align 8
  call void @llvm.dbg.declare(metadata %"class.altered_carbon::js::ACJsParser"** %2, metadata !6887, metadata !DIExpression()), !dbg !6889
  %3 = load %"class.altered_carbon::js::ACJsParser"*, %"class.altered_carbon::js::ACJsParser"** %2, align 8
  ret i32 0, !dbg !6890
}

; Function Attrs: nounwind readnone speculatable
declare void @llvm.dbg.declare(metadata, metadata, metadata) #1

; Function Attrs: noinline nounwind optnone ssp uwtable
define void @_ZN14altered_carbon2js10ACJsParser12scanTemplateEv(%"class.std::__1::unique_ptr"* noalias sret, %"class.altered_carbon::js::ACJsParser"*) #0 align 2 !dbg !6891 {
  %3 = alloca %"class.std::__1::basic_string_view"*, align 8
  call void @llvm.dbg.declare(metadata %"class.std::__1::basic_string_view"** %3, metadata !6892, metadata !DIExpression()), !dbg !6895
  %4 = alloca i8*, align 8
  call void @llvm.dbg.declare(metadata i8** %4, metadata !6899, metadata !DIExpression()), !dbg !6900
  %5 = alloca i64, align 8
  call void @llvm.dbg.declare(metadata i64* %5, metadata !6901, metadata !DIExpression()), !dbg !6902
  %6 = alloca %"class.std::__1::basic_string_view"*, align 8
  call void @llvm.dbg.declare(metadata %"class.std::__1::basic_string_view"** %6, metadata !6903, metadata !DIExpression()), !dbg !6904
  %7 = alloca i8*, align 8
  call void @llvm.dbg.declare(metadata i8** %7, metadata !6905, metadata !DIExpression()), !dbg !6906
  %8 = alloca i64, align 8
  call void @llvm.dbg.declare(metadata i64* %8, metadata !6907, metadata !DIExpression()), !dbg !6908
  %9 = alloca %"class.altered_carbon::js::ACJsParser"*, align 8
  %10 = alloca i32, align 4
  %11 = alloca %"class.std::__1::basic_string_view", align 8
  store %"class.altered_carbon::js::ACJsParser"* %1, %"class.altered_carbon::js::ACJsParser"** %9, align 8
  call void @llvm.dbg.declare(metadata %"class.altered_carbon::js::ACJsParser"** %9, metadata !6909, metadata !DIExpression()), !dbg !6910
  %12 = load %"class.altered_carbon::js::ACJsParser"*, %"class.altered_carbon::js::ACJsParser"** %9, align 8
  store i32 0, i32* %10, align 4, !dbg !6911
  %13 = getelementptr inbounds %"class.altered_carbon::js::ACJsParser", %"class.altered_carbon::js::ACJsParser"* %12, i32 0, i32 8, !dbg !6911
  %14 = getelementptr inbounds %"class.altered_carbon::js::ACJsParser", %"class.altered_carbon::js::ACJsParser"* %12, i32 0, i32 3, !dbg !6911
  %15 = load i8*, i8** %14, align 8, !dbg !6911
  %16 = getelementptr inbounds %"class.altered_carbon::js::ACJsParser", %"class.altered_carbon::js::ACJsParser"* %12, i32 0, i32 11, !dbg !6911
  %17 = getelementptr inbounds %"struct.altered_carbon::js::ACLexPosition", %"struct.altered_carbon::js::ACLexPosition"* %16, i32 0, i32 1, !dbg !6911
  %18 = load i64, i64* %17, align 8, !dbg !6911
  %19 = getelementptr inbounds i8, i8* %15, i64 %18, !dbg !6911
  %20 = getelementptr inbounds %"class.altered_carbon::js::ACJsParser", %"class.altered_carbon::js::ACJsParser"* %12, i32 0, i32 8, !dbg !6911
  %21 = load i32, i32* %20, align 4, !dbg !6911
  %22 = sext i32 %21 to i64, !dbg !6911
  store %"class.std::__1::basic_string_view"* %11, %"class.std::__1::basic_string_view"** %6, align 8
  store i8* %19, i8** %7, align 8
  store i64 %22, i64* %8, align 8
  %23 = load %"class.std::__1::basic_string_view"*, %"class.std::__1::basic_string_view"** %6, align 8
  %24 = load i8*, i8** %7, align 8, !dbg !6912
  %25 = load i64, i64* %8, align 8, !dbg !6912
  store %"class.std::__1::basic_string_view"* %23, %"class.std::__1::basic_string_view"** %3, align 8
  store i8* %24, i8** %4, align 8
  store i64 %25, i64* %5, align 8
  %26 = load %"class.std::__1::basic_string_view"*, %"class.std::__1::basic_string_view"** %3, align 8
  %27 = getelementptr inbounds %"class.std::__1::basic_string_view", %"class.std::__1::basic_string_view"* %26, i32 0, i32 0, !dbg !6913
  %28 = load i8*, i8** %4, align 8, !dbg !6914
  store i8* %28, i8** %27, align 8, !dbg !6913
  %29 = getelementptr inbounds %"class.std::__1::basic_string_view", %"class.std::__1::basic_string_view"* %26, i32 0, i32 1, !dbg !6915
  %30 = load i64, i64* %5, align 8, !dbg !6916
  store i64 %30, i64* %29, align 8, !dbg !6915
  %31 = getelementptr inbounds %"class.altered_carbon::js::ACJsParser", %"class.altered_carbon::js::ACJsParser"* %12, i32 0, i32 11, !dbg !6911
  call void @_ZN4llvm11make_uniqueIN14altered_carbon2js10ACLexTokenEJNS2_14ACLexTokenTypeERiNSt3__117basic_string_viewIcNS6_11char_traitsIcEEEERNS2_13ACLexPositionEEEENS6_9enable_ifIXntsr3std8is_arrayIT_EE5valueENS6_10unique_ptrISE_NS6_14default_deleteISE_EEEEE4typeEDpOT0_(%"class.std::__1::unique_ptr"* sret %0, i32* dereferenceable(4) %10, i32* dereferenceable(4) %13, %"class.std::__1::basic_string_view"* dereferenceable(16) %11, %"struct.altered_carbon::js::ACLexPosition"* dereferenceable(32) %31), !dbg !6911
  ret void, !dbg !6917
}

; Function Attrs: noinline nounwind optnone ssp uwtable
define linkonce_odr void @_ZN4llvm11make_uniqueIN14altered_carbon2js10ACLexTokenEJNS2_14ACLexTokenTypeERiNSt3__117basic_string_viewIcNS6_11char_traitsIcEEEERNS2_13ACLexPositionEEEENS6_9enable_ifIXntsr3std8is_arrayIT_EE5valueENS6_10unique_ptrISE_NS6_14default_deleteISE_EEEEE4typeEDpOT0_(%"class.std::__1::unique_ptr"* noalias sret, i32* dereferenceable(4), i32* dereferenceable(4), %"class.std::__1::basic_string_view"* dereferenceable(16), %"struct.altered_carbon::js::ACLexPosition"* dereferenceable(32)) #0 !dbg !6918 {
  %6 = alloca i32*, align 8
  call void @llvm.dbg.declare(metadata i32** %6, metadata !6937, metadata !DIExpression()), !dbg !6946
  %7 = alloca %"class.std::__1::basic_string_view"*, align 8
  call void @llvm.dbg.declare(metadata %"class.std::__1::basic_string_view"** %7, metadata !6948, metadata !DIExpression()), !dbg !6957
  %8 = alloca %"struct.altered_carbon::js::ACLexPosition"*, align 8
  call void @llvm.dbg.declare(metadata %"struct.altered_carbon::js::ACLexPosition"** %8, metadata !6959, metadata !DIExpression()), !dbg !6968
  %9 = alloca %"class.altered_carbon::js::ACLexToken"**, align 8
  call void @llvm.dbg.declare(metadata %"class.altered_carbon::js::ACLexToken"*** %9, metadata !6970, metadata !DIExpression()), !dbg !6979
  %10 = alloca %"struct.std::__1::__compressed_pair_elem.16"*, align 8
  call void @llvm.dbg.declare(metadata %"struct.std::__1::__compressed_pair_elem.16"** %10, metadata !7004, metadata !DIExpression()), !dbg !7006
  %11 = alloca %"class.altered_carbon::js::ACLexToken"**, align 8
  call void @llvm.dbg.declare(metadata %"class.altered_carbon::js::ACLexToken"*** %11, metadata !7007, metadata !DIExpression()), !dbg !7008
  %12 = alloca %"class.altered_carbon::js::ACLexToken"**, align 8
  call void @llvm.dbg.declare(metadata %"class.altered_carbon::js::ACLexToken"*** %12, metadata !6970, metadata !DIExpression()), !dbg !7009
  %13 = alloca %"class.std::__1::__compressed_pair.15"*, align 8
  call void @llvm.dbg.declare(metadata %"class.std::__1::__compressed_pair.15"** %13, metadata !7011, metadata !DIExpression()), !dbg !7013
  %14 = alloca %"class.altered_carbon::js::ACLexToken"**, align 8
  call void @llvm.dbg.declare(metadata %"class.altered_carbon::js::ACLexToken"*** %14, metadata !7014, metadata !DIExpression()), !dbg !7015
  %15 = alloca %"class.std::__1::__compressed_pair.15"*, align 8
  call void @llvm.dbg.declare(metadata %"class.std::__1::__compressed_pair.15"** %15, metadata !7016, metadata !DIExpression()), !dbg !7017
  %16 = alloca %"class.altered_carbon::js::ACLexToken"**, align 8
  call void @llvm.dbg.declare(metadata %"class.altered_carbon::js::ACLexToken"*** %16, metadata !7018, metadata !DIExpression()), !dbg !7019
  %17 = alloca %"class.std::__1::unique_ptr"*, align 8
  call void @llvm.dbg.declare(metadata %"class.std::__1::unique_ptr"** %17, metadata !7020, metadata !DIExpression()), !dbg !7022
  %18 = alloca %"class.altered_carbon::js::ACLexToken"*, align 8
  call void @llvm.dbg.declare(metadata %"class.altered_carbon::js::ACLexToken"** %18, metadata !7023, metadata !DIExpression()), !dbg !7024
  %19 = alloca %"class.std::__1::unique_ptr"*, align 8
  call void @llvm.dbg.declare(metadata %"class.std::__1::unique_ptr"** %19, metadata !7025, metadata !DIExpression()), !dbg !7026
  %20 = alloca %"class.altered_carbon::js::ACLexToken"*, align 8
  call void @llvm.dbg.declare(metadata %"class.altered_carbon::js::ACLexToken"** %20, metadata !7027, metadata !DIExpression()), !dbg !7028
  %21 = alloca i32*, align 8
  call void @llvm.dbg.declare(metadata i32** %21, metadata !7029, metadata !DIExpression()), !dbg !7036
  %22 = alloca i32*, align 8
  %23 = alloca i32*, align 8
  %24 = alloca %"class.std::__1::basic_string_view"*, align 8
  %25 = alloca %"struct.altered_carbon::js::ACLexPosition"*, align 8
  %26 = alloca %"class.std::__1::basic_string_view", align 8
  store i32* %1, i32** %22, align 8
  call void @llvm.dbg.declare(metadata i32** %22, metadata !7038, metadata !DIExpression()), !dbg !7039
  store i32* %2, i32** %23, align 8
  call void @llvm.dbg.declare(metadata i32** %23, metadata !7040, metadata !DIExpression()), !dbg !7039
  store %"class.std::__1::basic_string_view"* %3, %"class.std::__1::basic_string_view"** %24, align 8
  call void @llvm.dbg.declare(metadata %"class.std::__1::basic_string_view"** %24, metadata !7041, metadata !DIExpression()), !dbg !7039
  store %"struct.altered_carbon::js::ACLexPosition"* %4, %"struct.altered_carbon::js::ACLexPosition"** %25, align 8
  call void @llvm.dbg.declare(metadata %"struct.altered_carbon::js::ACLexPosition"** %25, metadata !7042, metadata !DIExpression()), !dbg !7039
  %27 = call i8* @_Znwm(i64 96) #5, !dbg !7043
  %28 = bitcast i8* %27 to %"class.altered_carbon::js::ACLexToken"*, !dbg !7043
  %29 = load i32*, i32** %22, align 8, !dbg !7044
  store i32* %29, i32** %21, align 8
  %30 = load i32*, i32** %21, align 8, !dbg !7045
  %31 = load i32, i32* %30, align 4, !dbg !7046
  %32 = load i32*, i32** %23, align 8, !dbg !7044
  store i32* %32, i32** %6, align 8
  %33 = load i32*, i32** %6, align 8, !dbg !7047
  %34 = load i32, i32* %33, align 4, !dbg !7046
  %35 = sext i32 %34 to i64, !dbg !7046
  %36 = load %"class.std::__1::basic_string_view"*, %"class.std::__1::basic_string_view"** %24, align 8, !dbg !7044
  store %"class.std::__1::basic_string_view"* %36, %"class.std::__1::basic_string_view"** %7, align 8
  %37 = load %"class.std::__1::basic_string_view"*, %"class.std::__1::basic_string_view"** %7, align 8, !dbg !7048
  %38 = bitcast %"class.std::__1::basic_string_view"* %26 to i8*, !dbg !7046
  %39 = bitcast %"class.std::__1::basic_string_view"* %37 to i8*, !dbg !7046
  call void @llvm.memcpy.p0i8.p0i8.i64(i8* align 8 %38, i8* align 8 %39, i64 16, i1 false), !dbg !7046
  %40 = load %"struct.altered_carbon::js::ACLexPosition"*, %"struct.altered_carbon::js::ACLexPosition"** %25, align 8, !dbg !7044
  store %"struct.altered_carbon::js::ACLexPosition"* %40, %"struct.altered_carbon::js::ACLexPosition"** %8, align 8
  %41 = load %"struct.altered_carbon::js::ACLexPosition"*, %"struct.altered_carbon::js::ACLexPosition"** %8, align 8, !dbg !7049
  %42 = bitcast %"class.std::__1::basic_string_view"* %26 to { i8*, i64 }*, !dbg !7050
  %43 = getelementptr inbounds { i8*, i64 }, { i8*, i64 }* %42, i32 0, i32 0, !dbg !7050
  %44 = load i8*, i8** %43, align 8, !dbg !7050
  %45 = getelementptr inbounds { i8*, i64 }, { i8*, i64 }* %42, i32 0, i32 1, !dbg !7050
  %46 = load i64, i64* %45, align 8, !dbg !7050
  call void @_ZN14altered_carbon2js10ACLexTokenC1ENS0_14ACLexTokenTypeEmNSt3__117basic_string_viewIcNS3_11char_traitsIcEEEERNS0_13ACLexPositionE(%"class.altered_carbon::js::ACLexToken"* %28, i32 %31, i64 %35, i8* %44, i64 %46, %"struct.altered_carbon::js::ACLexPosition"* dereferenceable(32) %41), !dbg !7050
  store %"class.std::__1::unique_ptr"* %0, %"class.std::__1::unique_ptr"** %19, align 8
  store %"class.altered_carbon::js::ACLexToken"* %28, %"class.altered_carbon::js::ACLexToken"** %20, align 8
  %47 = load %"class.std::__1::unique_ptr"*, %"class.std::__1::unique_ptr"** %19, align 8
  %48 = load %"class.altered_carbon::js::ACLexToken"*, %"class.altered_carbon::js::ACLexToken"** %20, align 8, !dbg !7051
  store %"class.std::__1::unique_ptr"* %47, %"class.std::__1::unique_ptr"** %17, align 8
  store %"class.altered_carbon::js::ACLexToken"* %48, %"class.altered_carbon::js::ACLexToken"** %18, align 8
  %49 = load %"class.std::__1::unique_ptr"*, %"class.std::__1::unique_ptr"** %17, align 8
  %50 = getelementptr inbounds %"class.std::__1::unique_ptr", %"class.std::__1::unique_ptr"* %49, i32 0, i32 0, !dbg !7052
  store %"class.std::__1::__compressed_pair.15"* %50, %"class.std::__1::__compressed_pair.15"** %15, align 8
  store %"class.altered_carbon::js::ACLexToken"** %18, %"class.altered_carbon::js::ACLexToken"*** %16, align 8
  %51 = load %"class.std::__1::__compressed_pair.15"*, %"class.std::__1::__compressed_pair.15"** %15, align 8
  %52 = load %"class.altered_carbon::js::ACLexToken"**, %"class.altered_carbon::js::ACLexToken"*** %16, align 8, !dbg !7053
  store %"class.std::__1::__compressed_pair.15"* %51, %"class.std::__1::__compressed_pair.15"** %13, align 8
  store %"class.altered_carbon::js::ACLexToken"** %52, %"class.altered_carbon::js::ACLexToken"*** %14, align 8
  %53 = load %"class.std::__1::__compressed_pair.15"*, %"class.std::__1::__compressed_pair.15"** %13, align 8
  %54 = bitcast %"class.std::__1::__compressed_pair.15"* %53 to %"struct.std::__1::__compressed_pair_elem.16"*, !dbg !7054
  %55 = load %"class.altered_carbon::js::ACLexToken"**, %"class.altered_carbon::js::ACLexToken"*** %14, align 8, !dbg !7055
  store %"class.altered_carbon::js::ACLexToken"** %55, %"class.altered_carbon::js::ACLexToken"*** %12, align 8
  %56 = load %"class.altered_carbon::js::ACLexToken"**, %"class.altered_carbon::js::ACLexToken"*** %12, align 8, !dbg !7056
  store %"struct.std::__1::__compressed_pair_elem.16"* %54, %"struct.std::__1::__compressed_pair_elem.16"** %10, align 8
  store %"class.altered_carbon::js::ACLexToken"** %56, %"class.altered_carbon::js::ACLexToken"*** %11, align 8
  %57 = load %"struct.std::__1::__compressed_pair_elem.16"*, %"struct.std::__1::__compressed_pair_elem.16"** %10, align 8
  %58 = getelementptr inbounds %"struct.std::__1::__compressed_pair_elem.16", %"struct.std::__1::__compressed_pair_elem.16"* %57, i32 0, i32 0, !dbg !7057
  %59 = load %"class.altered_carbon::js::ACLexToken"**, %"class.altered_carbon::js::ACLexToken"*** %11, align 8, !dbg !7058
  store %"class.altered_carbon::js::ACLexToken"** %59, %"class.altered_carbon::js::ACLexToken"*** %9, align 8
  %60 = load %"class.altered_carbon::js::ACLexToken"**, %"class.altered_carbon::js::ACLexToken"*** %9, align 8, !dbg !7059
  %61 = load %"class.altered_carbon::js::ACLexToken"*, %"class.altered_carbon::js::ACLexToken"** %60, align 8, !dbg !7060
  store %"class.altered_carbon::js::ACLexToken"* %61, %"class.altered_carbon::js::ACLexToken"** %58, align 8, !dbg !7057
  %62 = bitcast %"class.std::__1::__compressed_pair.15"* %53 to %"struct.std::__1::__compressed_pair_elem.25"*, !dbg !7054
  ret void, !dbg !7061
}

; Function Attrs: nobuiltin
declare noalias i8* @_Znwm(i64) #2

declare void @_ZN14altered_carbon2js10ACLexTokenC1ENS0_14ACLexTokenTypeEmNSt3__117basic_string_viewIcNS3_11char_traitsIcEEEERNS0_13ACLexPositionE(%"class.altered_carbon::js::ACLexToken"*, i32, i64, i8*, i64, %"struct.altered_carbon::js::ACLexPosition"* dereferenceable(32)) unnamed_addr #3

; Function Attrs: argmemonly nounwind
declare void @llvm.memcpy.p0i8.p0i8.i64(i8* nocapture writeonly, i8* nocapture readonly, i64, i1) #4

attributes #0 = { noinline nounwind optnone ssp uwtable "correctly-rounded-divide-sqrt-fp-math"="false" "disable-tail-calls"="false" "less-precise-fpmad"="false" "no-frame-pointer-elim"="true" "no-frame-pointer-elim-non-leaf" "no-infs-fp-math"="false" "no-jump-tables"="false" "no-nans-fp-math"="false" "no-signed-zeros-fp-math"="false" "no-trapping-math"="false" "stack-protector-buffer-size"="8" "target-cpu"="penryn" "target-features"="+cx16,+fxsr,+mmx,+sse,+sse2,+sse3,+sse4.1,+ssse3,+x87" "unsafe-fp-math"="false" "use-soft-float"="false" }
attributes #1 = { nounwind readnone speculatable }
attributes #2 = { nobuiltin "correctly-rounded-divide-sqrt-fp-math"="false" "disable-tail-calls"="false" "less-precise-fpmad"="false" "no-frame-pointer-elim"="true" "no-frame-pointer-elim-non-leaf" "no-infs-fp-math"="false" "no-nans-fp-math"="false" "no-signed-zeros-fp-math"="false" "no-trapping-math"="false" "stack-protector-buffer-size"="8" "target-cpu"="penryn" "target-features"="+cx16,+fxsr,+mmx,+sse,+sse2,+sse3,+sse4.1,+ssse3,+x87" "unsafe-fp-math"="false" "use-soft-float"="false" }
attributes #3 = { "correctly-rounded-divide-sqrt-fp-math"="false" "disable-tail-calls"="false" "less-precise-fpmad"="false" "no-frame-pointer-elim"="true" "no-frame-pointer-elim-non-leaf" "no-infs-fp-math"="false" "no-nans-fp-math"="false" "no-signed-zeros-fp-math"="false" "no-trapping-math"="false" "stack-protector-buffer-size"="8" "target-cpu"="penryn" "target-features"="+cx16,+fxsr,+mmx,+sse,+sse2,+sse3,+sse4.1,+ssse3,+x87" "unsafe-fp-math"="false" "use-soft-float"="false" }
attributes #4 = { argmemonly nounwind }
attributes #5 = { builtin }

!llvm.dbg.cu = !{!0}
!llvm.module.flags = !{!6881, !6882, !6883, !6884}
!llvm.ident = !{!6885}

!0 = distinct !DICompileUnit(language: DW_LANG_C_plus_plus, file: !1, producer: "Apple LLVM version 9.1.0 (clang-902.0.39.2)", isOptimized: false, runtimeVersion: 0, emissionKind: FullDebug, enums: !2, retainedTypes: !5675, imports: !5676)
!1 = !DIFile(filename: "../ac_lex_scanners.cc", directory: "/Users/ejiang/Projects/lls/ac/llfiles")
!2 = !{!3, !1994, !2011, !2786, !3117, !3505}
!3 = !DICompositeType(tag: DW_TAG_enumeration_type, name: "SourceType", scope: !5, file: !4, line: 71, size: 32, elements: !5672, identifier: "_ZTSN14altered_carbon2js10ACJsParser10SourceTypeE")
!4 = !DIFile(filename: "../ac_js_parser.h", directory: "/Users/ejiang/Projects/lls/ac/llfiles")
!5 = distinct !DICompositeType(tag: DW_TAG_class_type, name: "ACJsParser", scope: !6, file: !4, line: 68, size: 1984, elements: !8, vtableHolder: !5, identifier: "_ZTSN14altered_carbon2js10ACJsParserE")
!6 = !DINamespace(name: "js", scope: !7)
!7 = !DINamespace(name: "altered_carbon", scope: null)
!8 = !{!9, !15, !19, !921, !922, !923, !924, !925, !926, !927, !928, !5185, !5187, !5188, !5189, !5606, !5610, !5613, !5614, !5617, !5620, !5624, !5627, !5630, !5631, !5637, !5640, !5641, !5642, !5643, !5644, !5645, !5646, !5649, !5650, !5653, !5654, !5655, !5656, !5657, !5660, !5664, !5667, !5668, !5671}
!9 = !DIDerivedType(tag: DW_TAG_member, name: "_vptr$ACJsParser", scope: !4, file: !4, baseType: !10, size: 64, flags: DIFlagArtificial)
!10 = !DIDerivedType(tag: DW_TAG_pointer_type, baseType: !11, size: 64)
!11 = !DIDerivedType(tag: DW_TAG_pointer_type, name: "__vtbl_ptr_type", baseType: !12, size: 64)
!12 = !DISubroutineType(types: !13)
!13 = !{!14}
!14 = !DIBasicType(name: "int", size: 32, encoding: DW_ATE_signed)
!15 = !DIDerivedType(tag: DW_TAG_member, name: "source_path_", scope: !5, file: !4, line: 78, baseType: !16, size: 64, offset: 64, flags: DIFlagProtected)
!16 = !DIDerivedType(tag: DW_TAG_pointer_type, baseType: !17, size: 64)
!17 = !DIDerivedType(tag: DW_TAG_const_type, baseType: !18)
!18 = !DIBasicType(name: "char", size: 8, encoding: DW_ATE_signed_char)
!19 = !DIDerivedType(tag: DW_TAG_member, name: "source_contents_", scope: !5, file: !4, line: 79, baseType: !20, size: 192, offset: 128, flags: DIFlagProtected)
!20 = !DIDerivedType(tag: DW_TAG_typedef, name: "string", scope: !22, file: !21, line: 194, baseType: !24)
!21 = !DIFile(filename: "/Applications/Xcode.app/Contents/Developer/Toolchains/XcodeDefault.xctoolchain/usr/include/c++/v1/iosfwd", directory: "/Users/ejiang/Projects/lls/ac/llfiles")
!22 = !DINamespace(name: "__1", scope: !23, exportSymbols: true)
!23 = !DINamespace(name: "std", scope: null)
!24 = distinct !DICompositeType(tag: DW_TAG_class_type, name: "basic_string<char, std::__1::char_traits<char>, std::__1::allocator<char> >", scope: !22, file: !25, line: 4002, size: 192, elements: !26, templateParams: !919, identifier: "_ZTSNSt3__112basic_stringIcNS_11char_traitsIcEENS_9allocatorIcEEEE")
!25 = !DIFile(filename: "/Applications/Xcode.app/Contents/Developer/Toolchains/XcodeDefault.xctoolchain/usr/include/c++/v1/string", directory: "/Users/ejiang/Projects/lls/ac/llfiles")
!26 = !{!27, !39, !197, !198, !305, !306, !310, !316, !321, !324, !328, !331, !334, !337, !340, !343, !346, !349, !352, !355, !543, !546, !572, !575, !576, !580, !584, !587, !590, !595, !598, !603, !608, !609, !610, !615, !620, !621, !622, !623, !624, !625, !626, !629, !630, !631, !632, !635, !638, !639, !640, !641, !644, !649, !654, !655, !656, !657, !660, !661, !662, !663, !664, !665, !668, !671, !672, !675, !676, !679, !680, !683, !686, !687, !688, !689, !690, !691, !692, !693, !694, !695, !696, !699, !702, !705, !708, !711, !714, !717, !720, !723, !726, !729, !732, !735, !738, !741, !744, !747, !750, !753, !756, !759, !762, !765, !768, !772, !775, !778, !781, !782, !785, !788, !791, !794, !797, !800, !801, !802, !803, !804, !805, !806, !807, !808, !809, !810, !811, !812, !813, !814, !815, !816, !817, !818, !819, !820, !821, !822, !823, !824, !825, !828, !831, !834, !837, !840, !843, !846, !849, !850, !851, !855, !858, !859, !860, !861, !862, !863, !864, !865, !868, !871, !879, !880, !881, !882, !883, !884, !887, !890, !893, !894, !897, !900, !901, !902, !905, !908, !911, !914, !915, !916, !917, !918}
!27 = !DIDerivedType(tag: DW_TAG_inheritance, scope: !24, baseType: !28)
!28 = distinct !DICompositeType(tag: DW_TAG_class_type, name: "__basic_string_common<true>", scope: !22, file: !25, line: 583, size: 8, elements: !29, templateParams: !36, identifier: "_ZTSNSt3__121__basic_string_commonILb1EEE")
!29 = !{!30, !35}
!30 = !DISubprogram(name: "__throw_length_error", linkageName: "_ZNKSt3__121__basic_string_commonILb1EE20__throw_length_errorEv", scope: !28, file: !25, line: 565, type: !31, isLocal: false, isDefinition: false, scopeLine: 565, flags: DIFlagProtected | DIFlagPrototyped, isOptimized: false)
!31 = !DISubroutineType(types: !32)
!32 = !{null, !33}
!33 = !DIDerivedType(tag: DW_TAG_pointer_type, baseType: !34, size: 64, flags: DIFlagArtificial | DIFlagObjectPointer)
!34 = !DIDerivedType(tag: DW_TAG_const_type, baseType: !28)
!35 = !DISubprogram(name: "__throw_out_of_range", linkageName: "_ZNKSt3__121__basic_string_commonILb1EE20__throw_out_of_rangeEv", scope: !28, file: !25, line: 566, type: !31, isLocal: false, isDefinition: false, scopeLine: 566, flags: DIFlagProtected | DIFlagPrototyped, isOptimized: false)
!36 = !{!37}
!37 = !DITemplateValueParameter(type: !38, value: i8 1)
!38 = !DIBasicType(name: "bool", size: 8, encoding: DW_ATE_boolean)
!39 = !DIDerivedType(tag: DW_TAG_member, name: "__short_mask", scope: !24, file: !25, line: 707, baseType: !40, flags: DIFlagStaticMember, extraData: i64 1)
!40 = !DIDerivedType(tag: DW_TAG_const_type, baseType: !41)
!41 = !DIDerivedType(tag: DW_TAG_typedef, name: "size_type", scope: !24, file: !25, line: 640, baseType: !42)
!42 = !DIDerivedType(tag: DW_TAG_typedef, name: "size_type", scope: !44, file: !43, line: 1478, baseType: !191)
!43 = !DIFile(filename: "/Applications/Xcode.app/Contents/Developer/Toolchains/XcodeDefault.xctoolchain/usr/include/c++/v1/memory", directory: "/Users/ejiang/Projects/lls/ac/llfiles")
!44 = distinct !DICompositeType(tag: DW_TAG_structure_type, name: "allocator_traits<std::__1::allocator<char> >", scope: !22, file: !43, line: 1467, size: 8, elements: !45, templateParams: !190, identifier: "_ZTSNSt3__116allocator_traitsINS_9allocatorIcEEEE")
!45 = !{!46, !108, !135, !138, !143, !146, !163, !178, !181, !184, !187}
!46 = !DISubprogram(name: "allocate", linkageName: "_ZNSt3__116allocator_traitsINS_9allocatorIcEEE8allocateERS2_m", scope: !44, file: !43, line: 1501, type: !47, isLocal: false, isDefinition: false, scopeLine: 1501, flags: DIFlagPrototyped, isOptimized: false)
!47 = !DISubroutineType(types: !48)
!48 = !{!49, !106, !42}
!49 = !DIDerivedType(tag: DW_TAG_typedef, name: "pointer", scope: !44, file: !43, line: 1472, baseType: !50)
!50 = !DIDerivedType(tag: DW_TAG_typedef, name: "type", scope: !51, file: !43, line: 1020, baseType: !102)
!51 = distinct !DICompositeType(tag: DW_TAG_structure_type, name: "__pointer_type<char, std::__1::allocator<char> >", scope: !22, file: !43, line: 1018, size: 8, elements: !52, templateParams: !53, identifier: "_ZTSNSt3__114__pointer_typeIcNS_9allocatorIcEEEE")
!52 = !{}
!53 = !{!54, !55}
!54 = !DITemplateTypeParameter(name: "_Tp", type: !18)
!55 = !DITemplateTypeParameter(name: "_Dp", type: !56)
!56 = distinct !DICompositeType(tag: DW_TAG_class_type, name: "allocator<char>", scope: !22, file: !43, line: 1720, size: 8, elements: !57, templateParams: !101, identifier: "_ZTSNSt3__19allocatorIcEE")
!57 = !{!58, !62, !71, !77, !92, !95, !98}
!58 = !DISubprogram(name: "allocator", scope: !56, file: !43, line: 1736, type: !59, isLocal: false, isDefinition: false, scopeLine: 1736, flags: DIFlagPublic | DIFlagPrototyped, isOptimized: false)
!59 = !DISubroutineType(types: !60)
!60 = !{null, !61}
!61 = !DIDerivedType(tag: DW_TAG_pointer_type, baseType: !56, size: 64, flags: DIFlagArtificial | DIFlagObjectPointer)
!62 = !DISubprogram(name: "address", linkageName: "_ZNKSt3__19allocatorIcE7addressERc", scope: !56, file: !43, line: 1738, type: !63, isLocal: false, isDefinition: false, scopeLine: 1738, flags: DIFlagPublic | DIFlagPrototyped, isOptimized: false)
!63 = !DISubroutineType(types: !64)
!64 = !{!65, !67, !69}
!65 = !DIDerivedType(tag: DW_TAG_typedef, name: "pointer", scope: !56, file: !43, line: 1725, baseType: !66)
!66 = !DIDerivedType(tag: DW_TAG_pointer_type, baseType: !18, size: 64)
!67 = !DIDerivedType(tag: DW_TAG_pointer_type, baseType: !68, size: 64, flags: DIFlagArtificial | DIFlagObjectPointer)
!68 = !DIDerivedType(tag: DW_TAG_const_type, baseType: !56)
!69 = !DIDerivedType(tag: DW_TAG_typedef, name: "reference", scope: !56, file: !43, line: 1727, baseType: !70)
!70 = !DIDerivedType(tag: DW_TAG_reference_type, baseType: !18, size: 64)
!71 = !DISubprogram(name: "address", linkageName: "_ZNKSt3__19allocatorIcE7addressERKc", scope: !56, file: !43, line: 1740, type: !72, isLocal: false, isDefinition: false, scopeLine: 1740, flags: DIFlagPublic | DIFlagPrototyped, isOptimized: false)
!72 = !DISubroutineType(types: !73)
!73 = !{!74, !67, !75}
!74 = !DIDerivedType(tag: DW_TAG_typedef, name: "const_pointer", scope: !56, file: !43, line: 1726, baseType: !16)
!75 = !DIDerivedType(tag: DW_TAG_typedef, name: "const_reference", scope: !56, file: !43, line: 1728, baseType: !76)
!76 = !DIDerivedType(tag: DW_TAG_reference_type, baseType: !17, size: 64)
!77 = !DISubprogram(name: "allocate", linkageName: "_ZNSt3__19allocatorIcE8allocateEmPKv", scope: !56, file: !43, line: 1742, type: !78, isLocal: false, isDefinition: false, scopeLine: 1742, flags: DIFlagPublic | DIFlagPrototyped, isOptimized: false)
!78 = !DISubroutineType(types: !79)
!79 = !{!65, !61, !80, !86}
!80 = !DIDerivedType(tag: DW_TAG_typedef, name: "size_type", file: !43, line: 1723, baseType: !81)
!81 = !DIDerivedType(tag: DW_TAG_typedef, name: "size_t", file: !82, line: 31, baseType: !83)
!82 = !DIFile(filename: "/Applications/Xcode.app/Contents/Developer/Platforms/MacOSX.platform/Developer/SDKs/MacOSX10.13.sdk/usr/include/sys/_types/_size_t.h", directory: "/Users/ejiang/Projects/lls/ac/llfiles")
!83 = !DIDerivedType(tag: DW_TAG_typedef, name: "__darwin_size_t", file: !84, line: 92, baseType: !85)
!84 = !DIFile(filename: "/Applications/Xcode.app/Contents/Developer/Platforms/MacOSX.platform/Developer/SDKs/MacOSX10.13.sdk/usr/include/i386/_types.h", directory: "/Users/ejiang/Projects/lls/ac/llfiles")
!85 = !DIBasicType(name: "long unsigned int", size: 64, encoding: DW_ATE_unsigned)
!86 = !DIDerivedType(tag: DW_TAG_typedef, name: "const_pointer", scope: !87, file: !43, line: 704, baseType: !90)
!87 = distinct !DICompositeType(tag: DW_TAG_class_type, name: "allocator<void>", scope: !22, file: !43, line: 700, size: 8, elements: !52, templateParams: !88, identifier: "_ZTSNSt3__19allocatorIvEE")
!88 = !{!89}
!89 = !DITemplateTypeParameter(name: "_Tp", type: null)
!90 = !DIDerivedType(tag: DW_TAG_pointer_type, baseType: !91, size: 64)
!91 = !DIDerivedType(tag: DW_TAG_const_type, baseType: null)
!92 = !DISubprogram(name: "deallocate", linkageName: "_ZNSt3__19allocatorIcE10deallocateEPcm", scope: !56, file: !43, line: 1749, type: !93, isLocal: false, isDefinition: false, scopeLine: 1749, flags: DIFlagPublic | DIFlagPrototyped, isOptimized: false)
!93 = !DISubroutineType(types: !94)
!94 = !{null, !61, !65, !80}
!95 = !DISubprogram(name: "max_size", linkageName: "_ZNKSt3__19allocatorIcE8max_sizeEv", scope: !56, file: !43, line: 1751, type: !96, isLocal: false, isDefinition: false, scopeLine: 1751, flags: DIFlagPublic | DIFlagPrototyped, isOptimized: false)
!96 = !DISubroutineType(types: !97)
!97 = !{!80, !67}
!98 = !DISubprogram(name: "destroy", linkageName: "_ZNSt3__19allocatorIcE7destroyEPc", scope: !56, file: !43, line: 1814, type: !99, isLocal: false, isDefinition: false, scopeLine: 1814, flags: DIFlagPublic | DIFlagPrototyped, isOptimized: false)
!99 = !DISubroutineType(types: !100)
!100 = !{null, !61, !65}
!101 = !{!54}
!102 = !DIDerivedType(tag: DW_TAG_typedef, name: "type", scope: !103, file: !43, line: 1006, baseType: !65)
!103 = distinct !DICompositeType(tag: DW_TAG_structure_type, name: "__pointer_type<char, std::__1::allocator<char>, true>", scope: !104, file: !43, line: 1004, size: 8, elements: !52, templateParams: !105, identifier: "_ZTSNSt3__118__pointer_type_imp14__pointer_typeIcNS_9allocatorIcEELb1EEE")
!104 = !DINamespace(name: "__pointer_type_imp", scope: !22)
!105 = !{!54, !55, !37}
!106 = !DIDerivedType(tag: DW_TAG_reference_type, baseType: !107, size: 64)
!107 = !DIDerivedType(tag: DW_TAG_typedef, name: "allocator_type", scope: !44, file: !43, line: 1469, baseType: !56)
!108 = !DISubprogram(name: "allocate", linkageName: "_ZNSt3__116allocator_traitsINS_9allocatorIcEEE8allocateERS2_mPKv", scope: !44, file: !43, line: 1504, type: !109, isLocal: false, isDefinition: false, scopeLine: 1504, flags: DIFlagPrototyped, isOptimized: false)
!109 = !DISubroutineType(types: !110)
!110 = !{!49, !106, !42, !111}
!111 = !DIDerivedType(tag: DW_TAG_typedef, name: "const_void_pointer", scope: !44, file: !43, line: 1475, baseType: !112)
!112 = !DIDerivedType(tag: DW_TAG_typedef, name: "type", scope: !113, file: !43, line: 1086, baseType: !118)
!113 = distinct !DICompositeType(tag: DW_TAG_structure_type, name: "__const_void_pointer<char *, std::__1::allocator<char>, false>", scope: !22, file: !43, line: 1083, size: 8, elements: !52, templateParams: !114, identifier: "_ZTSNSt3__120__const_void_pointerIPcNS_9allocatorIcEELb0EEE")
!114 = !{!115, !116, !117}
!115 = !DITemplateTypeParameter(name: "_Ptr", type: !66)
!116 = !DITemplateTypeParameter(name: "_Alloc", type: !56)
!117 = !DITemplateValueParameter(type: !38, value: i8 0)
!118 = !DIDerivedType(tag: DW_TAG_typedef, name: "rebind<const void>", scope: !119, file: !43, line: 968, baseType: !90)
!119 = distinct !DICompositeType(tag: DW_TAG_structure_type, name: "pointer_traits<char *>", scope: !22, file: !43, line: 961, size: 8, elements: !120, templateParams: !134, identifier: "_ZTSNSt3__114pointer_traitsIPcEE")
!120 = !{!121}
!121 = !DISubprogram(name: "pointer_to", linkageName: "_ZNSt3__114pointer_traitsIPcE10pointer_toERc", scope: !119, file: !43, line: 977, type: !122, isLocal: false, isDefinition: false, scopeLine: 977, flags: DIFlagPrototyped, isOptimized: false)
!122 = !DISubroutineType(types: !123)
!123 = !{!124, !125}
!124 = !DIDerivedType(tag: DW_TAG_typedef, name: "pointer", scope: !119, file: !43, line: 963, baseType: !66)
!125 = !DIDerivedType(tag: DW_TAG_reference_type, baseType: !126, size: 64)
!126 = !DIDerivedType(tag: DW_TAG_typedef, name: "type", scope: !128, file: !127, line: 414, baseType: !18)
!127 = !DIFile(filename: "/Applications/Xcode.app/Contents/Developer/Toolchains/XcodeDefault.xctoolchain/usr/include/c++/v1/type_traits", directory: "/Users/ejiang/Projects/lls/ac/llfiles")
!128 = distinct !DICompositeType(tag: DW_TAG_structure_type, name: "conditional<false, std::__1::pointer_traits<char *>::__nat, char>", scope: !22, file: !127, line: 414, size: 8, elements: !52, templateParams: !129, identifier: "_ZTSNSt3__111conditionalILb0ENS_14pointer_traitsIPcE5__natEcEE")
!129 = !{!130, !131, !133}
!130 = !DITemplateValueParameter(name: "_Bp", type: !38, value: i8 0)
!131 = !DITemplateTypeParameter(name: "_If", type: !132)
!132 = !DICompositeType(tag: DW_TAG_structure_type, name: "__nat", scope: !119, file: !43, line: 974, flags: DIFlagFwdDecl, identifier: "_ZTSNSt3__114pointer_traitsIPcE5__natE")
!133 = !DITemplateTypeParameter(name: "_Then", type: !18)
!134 = !{!115}
!135 = !DISubprogram(name: "deallocate", linkageName: "_ZNSt3__116allocator_traitsINS_9allocatorIcEEE10deallocateERS2_Pcm", scope: !44, file: !43, line: 1509, type: !136, isLocal: false, isDefinition: false, scopeLine: 1509, flags: DIFlagPrototyped, isOptimized: false)
!136 = !DISubroutineType(types: !137)
!137 = !{null, !106, !49, !42}
!138 = !DISubprogram(name: "max_size", linkageName: "_ZNSt3__116allocator_traitsINS_9allocatorIcEEE8max_sizeERKS2_", scope: !44, file: !43, line: 1553, type: !139, isLocal: false, isDefinition: false, scopeLine: 1553, flags: DIFlagPrototyped, isOptimized: false)
!139 = !DISubroutineType(types: !140)
!140 = !{!42, !141}
!141 = !DIDerivedType(tag: DW_TAG_reference_type, baseType: !142, size: 64)
!142 = !DIDerivedType(tag: DW_TAG_const_type, baseType: !107)
!143 = !DISubprogram(name: "select_on_container_copy_construction", linkageName: "_ZNSt3__116allocator_traitsINS_9allocatorIcEEE37select_on_container_copy_constructionERKS2_", scope: !44, file: !43, line: 1558, type: !144, isLocal: false, isDefinition: false, scopeLine: 1558, flags: DIFlagPrototyped, isOptimized: false)
!144 = !DISubroutineType(types: !145)
!145 = !{!107, !141}
!146 = !DISubprogram(name: "__allocate", linkageName: "_ZNSt3__116allocator_traitsINS_9allocatorIcEEE10__allocateERS2_mPKvNS_17integral_constantIbLb1EEE", scope: !44, file: !43, line: 1658, type: !147, isLocal: false, isDefinition: false, scopeLine: 1658, flags: DIFlagPrivate | DIFlagPrototyped, isOptimized: false)
!147 = !DISubroutineType(types: !148)
!148 = !{!49, !106, !42, !111, !149}
!149 = !DIDerivedType(tag: DW_TAG_typedef, name: "true_type", scope: !22, file: !127, line: 528, baseType: !150)
!150 = distinct !DICompositeType(tag: DW_TAG_structure_type, name: "integral_constant<bool, true>", scope: !22, file: !127, line: 504, size: 8, elements: !151, templateParams: !160, identifier: "_ZTSNSt3__117integral_constantIbLb1EEE")
!151 = !{!152, !154}
!152 = !DIDerivedType(tag: DW_TAG_member, name: "value", scope: !150, file: !127, line: 506, baseType: !153, flags: DIFlagStaticMember, extraData: i1 true)
!153 = !DIDerivedType(tag: DW_TAG_const_type, baseType: !38)
!154 = !DISubprogram(name: "operator bool", linkageName: "_ZNKSt3__117integral_constantIbLb1EEcvbEv", scope: !150, file: !127, line: 510, type: !155, isLocal: false, isDefinition: false, scopeLine: 510, flags: DIFlagPrototyped, isOptimized: false)
!155 = !DISubroutineType(types: !156)
!156 = !{!157, !158}
!157 = !DIDerivedType(tag: DW_TAG_typedef, name: "value_type", scope: !150, file: !127, line: 507, baseType: !38)
!158 = !DIDerivedType(tag: DW_TAG_pointer_type, baseType: !159, size: 64, flags: DIFlagArtificial | DIFlagObjectPointer)
!159 = !DIDerivedType(tag: DW_TAG_const_type, baseType: !150)
!160 = !{!161, !162}
!161 = !DITemplateTypeParameter(name: "_Tp", type: !38)
!162 = !DITemplateValueParameter(name: "__v", type: !38, value: i8 1)
!163 = !DISubprogram(name: "__allocate", linkageName: "_ZNSt3__116allocator_traitsINS_9allocatorIcEEE10__allocateERS2_mPKvNS_17integral_constantIbLb0EEE", scope: !44, file: !43, line: 1662, type: !164, isLocal: false, isDefinition: false, scopeLine: 1662, flags: DIFlagPrivate | DIFlagPrototyped, isOptimized: false)
!164 = !DISubroutineType(types: !165)
!165 = !{!49, !106, !42, !111, !166}
!166 = !DIDerivedType(tag: DW_TAG_typedef, name: "false_type", scope: !22, file: !127, line: 529, baseType: !167)
!167 = distinct !DICompositeType(tag: DW_TAG_structure_type, name: "integral_constant<bool, false>", scope: !22, file: !127, line: 504, size: 8, elements: !168, templateParams: !176, identifier: "_ZTSNSt3__117integral_constantIbLb0EEE")
!168 = !{!169, !170}
!169 = !DIDerivedType(tag: DW_TAG_member, name: "value", scope: !167, file: !127, line: 506, baseType: !153, flags: DIFlagStaticMember, extraData: i1 false)
!170 = !DISubprogram(name: "operator bool", linkageName: "_ZNKSt3__117integral_constantIbLb0EEcvbEv", scope: !167, file: !127, line: 510, type: !171, isLocal: false, isDefinition: false, scopeLine: 510, flags: DIFlagPrototyped, isOptimized: false)
!171 = !DISubroutineType(types: !172)
!172 = !{!173, !174}
!173 = !DIDerivedType(tag: DW_TAG_typedef, name: "value_type", scope: !167, file: !127, line: 507, baseType: !38)
!174 = !DIDerivedType(tag: DW_TAG_pointer_type, baseType: !175, size: 64, flags: DIFlagArtificial | DIFlagObjectPointer)
!175 = !DIDerivedType(tag: DW_TAG_const_type, baseType: !167)
!176 = !{!161, !177}
!177 = !DITemplateValueParameter(name: "__v", type: !38, value: i8 0)
!178 = !DISubprogram(name: "__max_size", linkageName: "_ZNSt3__116allocator_traitsINS_9allocatorIcEEE10__max_sizeENS_17integral_constantIbLb1EEERKS2_", scope: !44, file: !43, line: 1691, type: !179, isLocal: false, isDefinition: false, scopeLine: 1691, flags: DIFlagPrivate | DIFlagPrototyped, isOptimized: false)
!179 = !DISubroutineType(types: !180)
!180 = !{!42, !149, !141}
!181 = !DISubprogram(name: "__max_size", linkageName: "_ZNSt3__116allocator_traitsINS_9allocatorIcEEE10__max_sizeENS_17integral_constantIbLb0EEERKS2_", scope: !44, file: !43, line: 1694, type: !182, isLocal: false, isDefinition: false, scopeLine: 1694, flags: DIFlagPrivate | DIFlagPrototyped, isOptimized: false)
!182 = !DISubroutineType(types: !183)
!183 = !{!42, !166, !141}
!184 = !DISubprogram(name: "__select_on_container_copy_construction", linkageName: "_ZNSt3__116allocator_traitsINS_9allocatorIcEEE39__select_on_container_copy_constructionENS_17integral_constantIbLb1EEERKS2_", scope: !44, file: !43, line: 1699, type: !185, isLocal: false, isDefinition: false, scopeLine: 1699, flags: DIFlagPrivate | DIFlagPrototyped, isOptimized: false)
!185 = !DISubroutineType(types: !186)
!186 = !{!107, !149, !141}
!187 = !DISubprogram(name: "__select_on_container_copy_construction", linkageName: "_ZNSt3__116allocator_traitsINS_9allocatorIcEEE39__select_on_container_copy_constructionENS_17integral_constantIbLb0EEERKS2_", scope: !44, file: !43, line: 1703, type: !188, isLocal: false, isDefinition: false, scopeLine: 1703, flags: DIFlagPrivate | DIFlagPrototyped, isOptimized: false)
!188 = !DISubroutineType(types: !189)
!189 = !{!107, !166, !141}
!190 = !{!116}
!191 = !DIDerivedType(tag: DW_TAG_typedef, name: "type", scope: !192, file: !43, line: 1124, baseType: !196)
!192 = distinct !DICompositeType(tag: DW_TAG_structure_type, name: "__size_type<std::__1::allocator<char>, long, true>", scope: !22, file: !43, line: 1122, size: 8, elements: !52, templateParams: !193, identifier: "_ZTSNSt3__111__size_typeINS_9allocatorIcEElLb1EEE")
!193 = !{!116, !194, !37}
!194 = !DITemplateTypeParameter(name: "_DiffType", type: !195)
!195 = !DIBasicType(name: "long int", size: 64, encoding: DW_ATE_signed)
!196 = !DIDerivedType(tag: DW_TAG_typedef, name: "size_type", scope: !56, file: !43, line: 1723, baseType: !81)
!197 = !DIDerivedType(tag: DW_TAG_member, name: "__long_mask", scope: !24, file: !25, line: 708, baseType: !40, flags: DIFlagStaticMember, extraData: i64 1)
!198 = !DIDerivedType(tag: DW_TAG_member, name: "__r_", scope: !24, file: !25, line: 745, baseType: !199, size: 192)
!199 = distinct !DICompositeType(tag: DW_TAG_class_type, name: "__compressed_pair<std::__1::basic_string<char, std::__1::char_traits<char>, std::__1::allocator<char> >::__rep, std::__1::allocator<char> >", scope: !22, file: !43, line: 2111, size: 192, elements: !200, templateParams: !302, identifier: "_ZTSNSt3__117__compressed_pairINS_12basic_stringIcNS_11char_traitsIcEENS_9allocatorIcEEE5__repES5_EE")
!200 = !{!201, !259, !283, !287, !292, !295, !298}
!201 = !DIDerivedType(tag: DW_TAG_inheritance, scope: !199, baseType: !202)
!202 = distinct !DICompositeType(tag: DW_TAG_structure_type, name: "__compressed_pair_elem<std::__1::basic_string<char, std::__1::char_traits<char>, std::__1::allocator<char> >::__rep, 0, false>", scope: !22, file: !43, line: 2037, size: 192, elements: !203, templateParams: !255, identifier: "_ZTSNSt3__122__compressed_pair_elemINS_12basic_stringIcNS_11char_traitsIcEENS_9allocatorIcEEE5__repELi0ELb0EEE")
!203 = !{!204, !238, !242, !247}
!204 = !DIDerivedType(tag: DW_TAG_member, name: "__value_", scope: !202, file: !43, line: 2069, baseType: !205, size: 192, flags: DIFlagPrivate)
!205 = distinct !DICompositeType(tag: DW_TAG_structure_type, name: "__rep", scope: !24, file: !25, line: 735, size: 192, elements: !206, identifier: "_ZTSNSt3__112basic_stringIcNS_11char_traitsIcEENS_9allocatorIcEEE5__repE")
!206 = !{!207}
!207 = !DIDerivedType(tag: DW_TAG_member, scope: !205, file: !25, line: 737, baseType: !208, size: 192)
!208 = distinct !DICompositeType(tag: DW_TAG_union_type, scope: !205, file: !25, line: 737, size: 192, elements: !209, identifier: "_ZTSNSt3__112basic_stringIcNS_11char_traitsIcEENS_9allocatorIcEEE5__repUt_E")
!209 = !{!210, !217, !231}
!210 = !DIDerivedType(tag: DW_TAG_member, name: "__l", scope: !208, file: !25, line: 739, baseType: !211, size: 192)
!211 = distinct !DICompositeType(tag: DW_TAG_structure_type, name: "__long", scope: !24, file: !25, line: 696, size: 192, elements: !212, identifier: "_ZTSNSt3__112basic_stringIcNS_11char_traitsIcEENS_9allocatorIcEEE6__longE")
!212 = !{!213, !214, !215}
!213 = !DIDerivedType(tag: DW_TAG_member, name: "__cap_", scope: !211, file: !25, line: 698, baseType: !41, size: 64)
!214 = !DIDerivedType(tag: DW_TAG_member, name: "__size_", scope: !211, file: !25, line: 699, baseType: !41, size: 64, offset: 64)
!215 = !DIDerivedType(tag: DW_TAG_member, name: "__data_", scope: !211, file: !25, line: 700, baseType: !216, size: 64, offset: 128)
!216 = !DIDerivedType(tag: DW_TAG_typedef, name: "pointer", scope: !24, file: !25, line: 644, baseType: !49)
!217 = !DIDerivedType(tag: DW_TAG_member, name: "__s", scope: !208, file: !25, line: 740, baseType: !218, size: 192)
!218 = distinct !DICompositeType(tag: DW_TAG_structure_type, name: "__short", scope: !24, file: !25, line: 714, size: 192, elements: !219, identifier: "_ZTSNSt3__112basic_stringIcNS_11char_traitsIcEENS_9allocatorIcEEE7__shortE")
!219 = !{!220, !227}
!220 = !DIDerivedType(tag: DW_TAG_member, scope: !218, file: !25, line: 716, baseType: !221, size: 8)
!221 = distinct !DICompositeType(tag: DW_TAG_union_type, scope: !218, file: !25, line: 716, size: 8, elements: !222, identifier: "_ZTSNSt3__112basic_stringIcNS_11char_traitsIcEENS_9allocatorIcEEE7__shortUt_E")
!222 = !{!223, !225}
!223 = !DIDerivedType(tag: DW_TAG_member, name: "__size_", scope: !221, file: !25, line: 718, baseType: !224, size: 8)
!224 = !DIBasicType(name: "unsigned char", size: 8, encoding: DW_ATE_unsigned_char)
!225 = !DIDerivedType(tag: DW_TAG_member, name: "__lx", scope: !221, file: !25, line: 719, baseType: !226, size: 8)
!226 = !DIDerivedType(tag: DW_TAG_typedef, name: "value_type", scope: !24, file: !25, line: 637, baseType: !18)
!227 = !DIDerivedType(tag: DW_TAG_member, name: "__data_", scope: !218, file: !25, line: 721, baseType: !228, size: 184, offset: 8)
!228 = !DICompositeType(tag: DW_TAG_array_type, baseType: !226, size: 184, elements: !229)
!229 = !{!230}
!230 = !DISubrange(count: 23)
!231 = !DIDerivedType(tag: DW_TAG_member, name: "__r", scope: !208, file: !25, line: 741, baseType: !232, size: 192)
!232 = distinct !DICompositeType(tag: DW_TAG_structure_type, name: "__raw", scope: !24, file: !25, line: 730, size: 192, elements: !233, identifier: "_ZTSNSt3__112basic_stringIcNS_11char_traitsIcEENS_9allocatorIcEEE5__rawE")
!233 = !{!234}
!234 = !DIDerivedType(tag: DW_TAG_member, name: "__words", scope: !232, file: !25, line: 732, baseType: !235, size: 192)
!235 = !DICompositeType(tag: DW_TAG_array_type, baseType: !41, size: 192, elements: !236)
!236 = !{!237}
!237 = !DISubrange(count: 3)
!238 = !DISubprogram(name: "__compressed_pair_elem", scope: !202, file: !43, line: 2043, type: !239, isLocal: false, isDefinition: false, scopeLine: 2043, flags: DIFlagPrototyped, isOptimized: false)
!239 = !DISubroutineType(types: !240)
!240 = !{null, !241}
!241 = !DIDerivedType(tag: DW_TAG_pointer_type, baseType: !202, size: 64, flags: DIFlagArtificial | DIFlagObjectPointer)
!242 = !DISubprogram(name: "__get", linkageName: "_ZNSt3__122__compressed_pair_elemINS_12basic_stringIcNS_11char_traitsIcEENS_9allocatorIcEEE5__repELi0ELb0EE5__getEv", scope: !202, file: !43, line: 2064, type: !243, isLocal: false, isDefinition: false, scopeLine: 2064, flags: DIFlagPrototyped, isOptimized: false)
!243 = !DISubroutineType(types: !244)
!244 = !{!245, !241}
!245 = !DIDerivedType(tag: DW_TAG_typedef, name: "reference", scope: !202, file: !43, line: 2039, baseType: !246)
!246 = !DIDerivedType(tag: DW_TAG_reference_type, baseType: !205, size: 64)
!247 = !DISubprogram(name: "__get", linkageName: "_ZNKSt3__122__compressed_pair_elemINS_12basic_stringIcNS_11char_traitsIcEENS_9allocatorIcEEE5__repELi0ELb0EE5__getEv", scope: !202, file: !43, line: 2066, type: !248, isLocal: false, isDefinition: false, scopeLine: 2066, flags: DIFlagPrototyped, isOptimized: false)
!248 = !DISubroutineType(types: !249)
!249 = !{!250, !253}
!250 = !DIDerivedType(tag: DW_TAG_typedef, name: "const_reference", scope: !202, file: !43, line: 2040, baseType: !251)
!251 = !DIDerivedType(tag: DW_TAG_reference_type, baseType: !252, size: 64)
!252 = !DIDerivedType(tag: DW_TAG_const_type, baseType: !205)
!253 = !DIDerivedType(tag: DW_TAG_pointer_type, baseType: !254, size: 64, flags: DIFlagArtificial | DIFlagObjectPointer)
!254 = !DIDerivedType(tag: DW_TAG_const_type, baseType: !202)
!255 = !{!256, !257, !258}
!256 = !DITemplateTypeParameter(name: "_Tp", type: !205)
!257 = !DITemplateValueParameter(name: "_Idx", type: !14, value: i32 0)
!258 = !DITemplateValueParameter(name: "_CanBeEmptyBase", type: !38, value: i8 0)
!259 = !DIDerivedType(tag: DW_TAG_inheritance, scope: !199, baseType: !260)
!260 = distinct !DICompositeType(tag: DW_TAG_structure_type, name: "__compressed_pair_elem<std::__1::allocator<char>, 1, true>", scope: !22, file: !43, line: 2073, size: 8, elements: !261, templateParams: !279, identifier: "_ZTSNSt3__122__compressed_pair_elemINS_9allocatorIcEELi1ELb1EEE")
!261 = !{!262, !263, !267, !272}
!262 = !DIDerivedType(tag: DW_TAG_inheritance, scope: !260, baseType: !56, flags: DIFlagPrivate)
!263 = !DISubprogram(name: "__compressed_pair_elem", scope: !260, file: !43, line: 2080, type: !264, isLocal: false, isDefinition: false, scopeLine: 2080, flags: DIFlagPrototyped, isOptimized: false)
!264 = !DISubroutineType(types: !265)
!265 = !{null, !266}
!266 = !DIDerivedType(tag: DW_TAG_pointer_type, baseType: !260, size: 64, flags: DIFlagArtificial | DIFlagObjectPointer)
!267 = !DISubprogram(name: "__get", linkageName: "_ZNSt3__122__compressed_pair_elemINS_9allocatorIcEELi1ELb1EE5__getEv", scope: !260, file: !43, line: 2102, type: !268, isLocal: false, isDefinition: false, scopeLine: 2102, flags: DIFlagPrototyped, isOptimized: false)
!268 = !DISubroutineType(types: !269)
!269 = !{!270, !266}
!270 = !DIDerivedType(tag: DW_TAG_typedef, name: "reference", scope: !260, file: !43, line: 2075, baseType: !271)
!271 = !DIDerivedType(tag: DW_TAG_reference_type, baseType: !56, size: 64)
!272 = !DISubprogram(name: "__get", linkageName: "_ZNKSt3__122__compressed_pair_elemINS_9allocatorIcEELi1ELb1EE5__getEv", scope: !260, file: !43, line: 2104, type: !273, isLocal: false, isDefinition: false, scopeLine: 2104, flags: DIFlagPrototyped, isOptimized: false)
!273 = !DISubroutineType(types: !274)
!274 = !{!275, !277}
!275 = !DIDerivedType(tag: DW_TAG_typedef, name: "const_reference", scope: !260, file: !43, line: 2076, baseType: !276)
!276 = !DIDerivedType(tag: DW_TAG_reference_type, baseType: !68, size: 64)
!277 = !DIDerivedType(tag: DW_TAG_pointer_type, baseType: !278, size: 64, flags: DIFlagArtificial | DIFlagObjectPointer)
!278 = !DIDerivedType(tag: DW_TAG_const_type, baseType: !260)
!279 = !{!280, !281, !282}
!280 = !DITemplateTypeParameter(name: "_Tp", type: !56)
!281 = !DITemplateValueParameter(name: "_Idx", type: !14, value: i32 1)
!282 = !DITemplateValueParameter(name: "_CanBeEmptyBase", type: !38, value: i8 1)
!283 = !DISubprogram(name: "first", linkageName: "_ZNSt3__117__compressed_pairINS_12basic_stringIcNS_11char_traitsIcEENS_9allocatorIcEEE5__repES5_E5firstEv", scope: !199, file: !43, line: 2179, type: !284, isLocal: false, isDefinition: false, scopeLine: 2179, flags: DIFlagPublic | DIFlagPrototyped, isOptimized: false)
!284 = !DISubroutineType(types: !285)
!285 = !{!245, !286}
!286 = !DIDerivedType(tag: DW_TAG_pointer_type, baseType: !199, size: 64, flags: DIFlagArtificial | DIFlagObjectPointer)
!287 = !DISubprogram(name: "first", linkageName: "_ZNKSt3__117__compressed_pairINS_12basic_stringIcNS_11char_traitsIcEENS_9allocatorIcEEE5__repES5_E5firstEv", scope: !199, file: !43, line: 2184, type: !288, isLocal: false, isDefinition: false, scopeLine: 2184, flags: DIFlagPublic | DIFlagPrototyped, isOptimized: false)
!288 = !DISubroutineType(types: !289)
!289 = !{!250, !290}
!290 = !DIDerivedType(tag: DW_TAG_pointer_type, baseType: !291, size: 64, flags: DIFlagArtificial | DIFlagObjectPointer)
!291 = !DIDerivedType(tag: DW_TAG_const_type, baseType: !199)
!292 = !DISubprogram(name: "second", linkageName: "_ZNSt3__117__compressed_pairINS_12basic_stringIcNS_11char_traitsIcEENS_9allocatorIcEEE5__repES5_E6secondEv", scope: !199, file: !43, line: 2189, type: !293, isLocal: false, isDefinition: false, scopeLine: 2189, flags: DIFlagPublic | DIFlagPrototyped, isOptimized: false)
!293 = !DISubroutineType(types: !294)
!294 = !{!270, !286}
!295 = !DISubprogram(name: "second", linkageName: "_ZNKSt3__117__compressed_pairINS_12basic_stringIcNS_11char_traitsIcEENS_9allocatorIcEEE5__repES5_E6secondEv", scope: !199, file: !43, line: 2194, type: !296, isLocal: false, isDefinition: false, scopeLine: 2194, flags: DIFlagPublic | DIFlagPrototyped, isOptimized: false)
!296 = !DISubroutineType(types: !297)
!297 = !{!275, !290}
!298 = !DISubprogram(name: "swap", linkageName: "_ZNSt3__117__compressed_pairINS_12basic_stringIcNS_11char_traitsIcEENS_9allocatorIcEEE5__repES5_E4swapERS8_", scope: !199, file: !43, line: 2199, type: !299, isLocal: false, isDefinition: false, scopeLine: 2199, flags: DIFlagPublic | DIFlagPrototyped, isOptimized: false)
!299 = !DISubroutineType(types: !300)
!300 = !{null, !286, !301}
!301 = !DIDerivedType(tag: DW_TAG_reference_type, baseType: !199, size: 64)
!302 = !{!303, !304}
!303 = !DITemplateTypeParameter(name: "_T1", type: !205)
!304 = !DITemplateTypeParameter(name: "_T2", type: !56)
!305 = !DIDerivedType(tag: DW_TAG_member, name: "npos", scope: !24, file: !25, line: 748, baseType: !40, flags: DIFlagPublic | DIFlagStaticMember, extraData: i64 -1)
!306 = !DISubprogram(name: "basic_string", scope: !24, file: !25, line: 750, type: !307, isLocal: false, isDefinition: false, scopeLine: 750, flags: DIFlagPublic | DIFlagPrototyped, isOptimized: false)
!307 = !DISubroutineType(types: !308)
!308 = !{null, !309}
!309 = !DIDerivedType(tag: DW_TAG_pointer_type, baseType: !24, size: 64, flags: DIFlagArtificial | DIFlagObjectPointer)
!310 = !DISubprogram(name: "basic_string", scope: !24, file: !25, line: 753, type: !311, isLocal: false, isDefinition: false, scopeLine: 753, flags: DIFlagPublic | DIFlagExplicit | DIFlagPrototyped, isOptimized: false)
!311 = !DISubroutineType(types: !312)
!312 = !{null, !309, !313}
!313 = !DIDerivedType(tag: DW_TAG_reference_type, baseType: !314, size: 64)
!314 = !DIDerivedType(tag: DW_TAG_const_type, baseType: !315)
!315 = !DIDerivedType(tag: DW_TAG_typedef, name: "allocator_type", scope: !24, file: !25, line: 638, baseType: !56)
!316 = !DISubprogram(name: "basic_string", scope: !24, file: !25, line: 760, type: !317, isLocal: false, isDefinition: false, scopeLine: 760, flags: DIFlagPublic | DIFlagPrototyped, isOptimized: false)
!317 = !DISubroutineType(types: !318)
!318 = !{null, !309, !319}
!319 = !DIDerivedType(tag: DW_TAG_reference_type, baseType: !320, size: 64)
!320 = !DIDerivedType(tag: DW_TAG_const_type, baseType: !24)
!321 = !DISubprogram(name: "basic_string", scope: !24, file: !25, line: 761, type: !322, isLocal: false, isDefinition: false, scopeLine: 761, flags: DIFlagPublic | DIFlagPrototyped, isOptimized: false)
!322 = !DISubroutineType(types: !323)
!323 = !{null, !309, !319, !313}
!324 = !DISubprogram(name: "basic_string", scope: !24, file: !25, line: 765, type: !325, isLocal: false, isDefinition: false, scopeLine: 765, flags: DIFlagPublic | DIFlagPrototyped, isOptimized: false)
!325 = !DISubroutineType(types: !326)
!326 = !{null, !309, !327}
!327 = !DIDerivedType(tag: DW_TAG_rvalue_reference_type, baseType: !24, size: 64)
!328 = !DISubprogram(name: "basic_string", scope: !24, file: !25, line: 773, type: !329, isLocal: false, isDefinition: false, scopeLine: 773, flags: DIFlagPublic | DIFlagPrototyped, isOptimized: false)
!329 = !DISubroutineType(types: !330)
!330 = !{null, !309, !327, !313}
!331 = !DISubprogram(name: "basic_string", scope: !24, file: !25, line: 775, type: !332, isLocal: false, isDefinition: false, scopeLine: 775, flags: DIFlagPublic | DIFlagPrototyped, isOptimized: false)
!332 = !DISubroutineType(types: !333)
!333 = !{null, !309, !16}
!334 = !DISubprogram(name: "basic_string", scope: !24, file: !25, line: 777, type: !335, isLocal: false, isDefinition: false, scopeLine: 777, flags: DIFlagPublic | DIFlagPrototyped, isOptimized: false)
!335 = !DISubroutineType(types: !336)
!336 = !{null, !309, !16, !276}
!337 = !DISubprogram(name: "basic_string", scope: !24, file: !25, line: 779, type: !338, isLocal: false, isDefinition: false, scopeLine: 779, flags: DIFlagPublic | DIFlagPrototyped, isOptimized: false)
!338 = !DISubroutineType(types: !339)
!339 = !{null, !309, !16, !41}
!340 = !DISubprogram(name: "basic_string", scope: !24, file: !25, line: 781, type: !341, isLocal: false, isDefinition: false, scopeLine: 781, flags: DIFlagPublic | DIFlagPrototyped, isOptimized: false)
!341 = !DISubroutineType(types: !342)
!342 = !{null, !309, !16, !41, !276}
!343 = !DISubprogram(name: "basic_string", scope: !24, file: !25, line: 783, type: !344, isLocal: false, isDefinition: false, scopeLine: 783, flags: DIFlagPublic | DIFlagPrototyped, isOptimized: false)
!344 = !DISubroutineType(types: !345)
!345 = !{null, !309, !41, !18}
!346 = !DISubprogram(name: "basic_string", scope: !24, file: !25, line: 785, type: !347, isLocal: false, isDefinition: false, scopeLine: 785, flags: DIFlagPublic | DIFlagPrototyped, isOptimized: false)
!347 = !DISubroutineType(types: !348)
!348 = !{null, !309, !41, !18, !276}
!349 = !DISubprogram(name: "basic_string", scope: !24, file: !25, line: 786, type: !350, isLocal: false, isDefinition: false, scopeLine: 786, flags: DIFlagPublic | DIFlagPrototyped, isOptimized: false)
!350 = !DISubroutineType(types: !351)
!351 = !{null, !309, !319, !41, !41, !276}
!352 = !DISubprogram(name: "basic_string", scope: !24, file: !25, line: 789, type: !353, isLocal: false, isDefinition: false, scopeLine: 789, flags: DIFlagPublic | DIFlagPrototyped, isOptimized: false)
!353 = !DISubroutineType(types: !354)
!354 = !{null, !309, !319, !41, !276}
!355 = !DISubprogram(name: "basic_string", scope: !24, file: !25, line: 797, type: !356, isLocal: false, isDefinition: false, scopeLine: 797, flags: DIFlagPublic | DIFlagExplicit | DIFlagPrototyped, isOptimized: false)
!356 = !DISubroutineType(types: !357)
!357 = !{null, !309, !358}
!358 = !DIDerivedType(tag: DW_TAG_typedef, name: "__self_view", scope: !24, file: !25, line: 635, baseType: !359)
!359 = distinct !DICompositeType(tag: DW_TAG_class_type, name: "basic_string_view<char, std::__1::char_traits<char> >", scope: !22, file: !360, line: 187, size: 128, elements: !361, templateParams: !491, identifier: "_ZTSNSt3__117basic_string_viewIcNS_11char_traitsIcEEEE")
!360 = !DIFile(filename: "/Applications/Xcode.app/Contents/Developer/Toolchains/XcodeDefault.xctoolchain/usr/include/c++/v1/string_view", directory: "/Users/ejiang/Projects/lls/ac/llfiles")
!361 = !{!362, !365, !369, !370, !374, !379, !383, !386, !389, !395, !396, !397, !398, !404, !405, !406, !407, !410, !411, !412, !415, !419, !420, !423, !424, !427, !430, !431, !434, !438, !441, !444, !447, !450, !453, !456, !459, !462, !465, !468, !471, !472, !473, !474, !475, !476, !477, !478, !479, !480, !481, !482, !483, !484, !485, !486, !487, !488, !489, !490}
!362 = !DIDerivedType(tag: DW_TAG_member, name: "npos", scope: !359, file: !360, line: 202, baseType: !363, flags: DIFlagPublic | DIFlagStaticMember, extraData: i64 -1)
!363 = !DIDerivedType(tag: DW_TAG_const_type, baseType: !364)
!364 = !DIDerivedType(tag: DW_TAG_typedef, name: "size_type", file: !360, line: 200, baseType: !81)
!365 = !DIDerivedType(tag: DW_TAG_member, name: "__data", scope: !359, file: !360, line: 569, baseType: !366, size: 64)
!366 = !DIDerivedType(tag: DW_TAG_pointer_type, baseType: !367, size: 64)
!367 = !DIDerivedType(tag: DW_TAG_const_type, baseType: !368)
!368 = !DIDerivedType(tag: DW_TAG_typedef, name: "value_type", scope: !359, file: !360, line: 191, baseType: !18)
!369 = !DIDerivedType(tag: DW_TAG_member, name: "__size", scope: !359, file: !360, line: 570, baseType: !364, size: 64, offset: 64)
!370 = !DISubprogram(name: "basic_string_view", scope: !359, file: !360, line: 210, type: !371, isLocal: false, isDefinition: false, scopeLine: 210, flags: DIFlagPublic | DIFlagPrototyped, isOptimized: false)
!371 = !DISubroutineType(types: !372)
!372 = !{null, !373}
!373 = !DIDerivedType(tag: DW_TAG_pointer_type, baseType: !359, size: 64, flags: DIFlagArtificial | DIFlagObjectPointer)
!374 = !DISubprogram(name: "basic_string_view", scope: !359, file: !360, line: 213, type: !375, isLocal: false, isDefinition: false, scopeLine: 213, flags: DIFlagPublic | DIFlagPrototyped, isOptimized: false)
!375 = !DISubroutineType(types: !376)
!376 = !{null, !373, !377}
!377 = !DIDerivedType(tag: DW_TAG_reference_type, baseType: !378, size: 64)
!378 = !DIDerivedType(tag: DW_TAG_const_type, baseType: !359)
!379 = !DISubprogram(name: "operator=", linkageName: "_ZNSt3__117basic_string_viewIcNS_11char_traitsIcEEEaSERKS3_", scope: !359, file: !360, line: 216, type: !380, isLocal: false, isDefinition: false, scopeLine: 216, flags: DIFlagPublic | DIFlagPrototyped, isOptimized: false)
!380 = !DISubroutineType(types: !381)
!381 = !{!382, !373, !377}
!382 = !DIDerivedType(tag: DW_TAG_reference_type, baseType: !359, size: 64)
!383 = !DISubprogram(name: "basic_string_view", scope: !359, file: !360, line: 219, type: !384, isLocal: false, isDefinition: false, scopeLine: 219, flags: DIFlagPublic | DIFlagPrototyped, isOptimized: false)
!384 = !DISubroutineType(types: !385)
!385 = !{null, !373, !16, !364}
!386 = !DISubprogram(name: "basic_string_view", scope: !359, file: !360, line: 228, type: !387, isLocal: false, isDefinition: false, scopeLine: 228, flags: DIFlagPublic | DIFlagPrototyped, isOptimized: false)
!387 = !DISubroutineType(types: !388)
!388 = !{null, !373, !16}
!389 = !DISubprogram(name: "begin", linkageName: "_ZNKSt3__117basic_string_viewIcNS_11char_traitsIcEEE5beginEv", scope: !359, file: !360, line: 233, type: !390, isLocal: false, isDefinition: false, scopeLine: 233, flags: DIFlagPublic | DIFlagPrototyped, isOptimized: false)
!390 = !DISubroutineType(types: !391)
!391 = !{!392, !394}
!392 = !DIDerivedType(tag: DW_TAG_typedef, name: "const_iterator", scope: !359, file: !360, line: 196, baseType: !393)
!393 = !DIDerivedType(tag: DW_TAG_typedef, name: "const_pointer", scope: !359, file: !360, line: 193, baseType: !16)
!394 = !DIDerivedType(tag: DW_TAG_pointer_type, baseType: !378, size: 64, flags: DIFlagArtificial | DIFlagObjectPointer)
!395 = !DISubprogram(name: "end", linkageName: "_ZNKSt3__117basic_string_viewIcNS_11char_traitsIcEEE3endEv", scope: !359, file: !360, line: 236, type: !390, isLocal: false, isDefinition: false, scopeLine: 236, flags: DIFlagPublic | DIFlagPrototyped, isOptimized: false)
!396 = !DISubprogram(name: "cbegin", linkageName: "_ZNKSt3__117basic_string_viewIcNS_11char_traitsIcEEE6cbeginEv", scope: !359, file: !360, line: 239, type: !390, isLocal: false, isDefinition: false, scopeLine: 239, flags: DIFlagPublic | DIFlagPrototyped, isOptimized: false)
!397 = !DISubprogram(name: "cend", linkageName: "_ZNKSt3__117basic_string_viewIcNS_11char_traitsIcEEE4cendEv", scope: !359, file: !360, line: 242, type: !390, isLocal: false, isDefinition: false, scopeLine: 242, flags: DIFlagPublic | DIFlagPrototyped, isOptimized: false)
!398 = !DISubprogram(name: "rbegin", linkageName: "_ZNKSt3__117basic_string_viewIcNS_11char_traitsIcEEE6rbeginEv", scope: !359, file: !360, line: 245, type: !399, isLocal: false, isDefinition: false, scopeLine: 245, flags: DIFlagPublic | DIFlagPrototyped, isOptimized: false)
!399 = !DISubroutineType(types: !400)
!400 = !{!401, !394}
!401 = !DIDerivedType(tag: DW_TAG_typedef, name: "const_reverse_iterator", scope: !359, file: !360, line: 198, baseType: !402)
!402 = !DICompositeType(tag: DW_TAG_class_type, name: "reverse_iterator<const char *>", scope: !22, file: !403, line: 636, flags: DIFlagFwdDecl, identifier: "_ZTSNSt3__116reverse_iteratorIPKcEE")
!403 = !DIFile(filename: "/Applications/Xcode.app/Contents/Developer/Toolchains/XcodeDefault.xctoolchain/usr/include/c++/v1/iterator", directory: "/Users/ejiang/Projects/lls/ac/llfiles")
!404 = !DISubprogram(name: "rend", linkageName: "_ZNKSt3__117basic_string_viewIcNS_11char_traitsIcEEE4rendEv", scope: !359, file: !360, line: 248, type: !399, isLocal: false, isDefinition: false, scopeLine: 248, flags: DIFlagPublic | DIFlagPrototyped, isOptimized: false)
!405 = !DISubprogram(name: "crbegin", linkageName: "_ZNKSt3__117basic_string_viewIcNS_11char_traitsIcEEE7crbeginEv", scope: !359, file: !360, line: 251, type: !399, isLocal: false, isDefinition: false, scopeLine: 251, flags: DIFlagPublic | DIFlagPrototyped, isOptimized: false)
!406 = !DISubprogram(name: "crend", linkageName: "_ZNKSt3__117basic_string_viewIcNS_11char_traitsIcEEE5crendEv", scope: !359, file: !360, line: 254, type: !399, isLocal: false, isDefinition: false, scopeLine: 254, flags: DIFlagPublic | DIFlagPrototyped, isOptimized: false)
!407 = !DISubprogram(name: "size", linkageName: "_ZNKSt3__117basic_string_viewIcNS_11char_traitsIcEEE4sizeEv", scope: !359, file: !360, line: 258, type: !408, isLocal: false, isDefinition: false, scopeLine: 258, flags: DIFlagPublic | DIFlagPrototyped, isOptimized: false)
!408 = !DISubroutineType(types: !409)
!409 = !{!364, !394}
!410 = !DISubprogram(name: "length", linkageName: "_ZNKSt3__117basic_string_viewIcNS_11char_traitsIcEEE6lengthEv", scope: !359, file: !360, line: 261, type: !408, isLocal: false, isDefinition: false, scopeLine: 261, flags: DIFlagPublic | DIFlagPrototyped, isOptimized: false)
!411 = !DISubprogram(name: "max_size", linkageName: "_ZNKSt3__117basic_string_viewIcNS_11char_traitsIcEEE8max_sizeEv", scope: !359, file: !360, line: 264, type: !408, isLocal: false, isDefinition: false, scopeLine: 264, flags: DIFlagPublic | DIFlagPrototyped, isOptimized: false)
!412 = !DISubprogram(name: "empty", linkageName: "_ZNKSt3__117basic_string_viewIcNS_11char_traitsIcEEE5emptyEv", scope: !359, file: !360, line: 267, type: !413, isLocal: false, isDefinition: false, scopeLine: 267, flags: DIFlagPublic | DIFlagPrototyped, isOptimized: false)
!413 = !DISubroutineType(types: !414)
!414 = !{!38, !394}
!415 = !DISubprogram(name: "operator[]", linkageName: "_ZNKSt3__117basic_string_viewIcNS_11char_traitsIcEEEixEm", scope: !359, file: !360, line: 271, type: !416, isLocal: false, isDefinition: false, scopeLine: 271, flags: DIFlagPublic | DIFlagPrototyped, isOptimized: false)
!416 = !DISubroutineType(types: !417)
!417 = !{!418, !394, !364}
!418 = !DIDerivedType(tag: DW_TAG_typedef, name: "const_reference", scope: !359, file: !360, line: 195, baseType: !76)
!419 = !DISubprogram(name: "at", linkageName: "_ZNKSt3__117basic_string_viewIcNS_11char_traitsIcEEE2atEm", scope: !359, file: !360, line: 274, type: !416, isLocal: false, isDefinition: false, scopeLine: 274, flags: DIFlagPublic | DIFlagPrototyped, isOptimized: false)
!420 = !DISubprogram(name: "front", linkageName: "_ZNKSt3__117basic_string_viewIcNS_11char_traitsIcEEE5frontEv", scope: !359, file: !360, line: 282, type: !421, isLocal: false, isDefinition: false, scopeLine: 282, flags: DIFlagPublic | DIFlagPrototyped, isOptimized: false)
!421 = !DISubroutineType(types: !422)
!422 = !{!418, !394}
!423 = !DISubprogram(name: "back", linkageName: "_ZNKSt3__117basic_string_viewIcNS_11char_traitsIcEEE4backEv", scope: !359, file: !360, line: 288, type: !421, isLocal: false, isDefinition: false, scopeLine: 288, flags: DIFlagPublic | DIFlagPrototyped, isOptimized: false)
!424 = !DISubprogram(name: "data", linkageName: "_ZNKSt3__117basic_string_viewIcNS_11char_traitsIcEEE4dataEv", scope: !359, file: !360, line: 294, type: !425, isLocal: false, isDefinition: false, scopeLine: 294, flags: DIFlagPublic | DIFlagPrototyped, isOptimized: false)
!425 = !DISubroutineType(types: !426)
!426 = !{!393, !394}
!427 = !DISubprogram(name: "remove_prefix", linkageName: "_ZNSt3__117basic_string_viewIcNS_11char_traitsIcEEE13remove_prefixEm", scope: !359, file: !360, line: 298, type: !428, isLocal: false, isDefinition: false, scopeLine: 298, flags: DIFlagPublic | DIFlagPrototyped, isOptimized: false)
!428 = !DISubroutineType(types: !429)
!429 = !{null, !373, !364}
!430 = !DISubprogram(name: "remove_suffix", linkageName: "_ZNSt3__117basic_string_viewIcNS_11char_traitsIcEEE13remove_suffixEm", scope: !359, file: !360, line: 306, type: !428, isLocal: false, isDefinition: false, scopeLine: 306, flags: DIFlagPublic | DIFlagPrototyped, isOptimized: false)
!431 = !DISubprogram(name: "swap", linkageName: "_ZNSt3__117basic_string_viewIcNS_11char_traitsIcEEE4swapERS3_", scope: !359, file: !360, line: 313, type: !432, isLocal: false, isDefinition: false, scopeLine: 313, flags: DIFlagPublic | DIFlagPrototyped, isOptimized: false)
!432 = !DISubroutineType(types: !433)
!433 = !{null, !373, !382}
!434 = !DISubprogram(name: "copy", linkageName: "_ZNKSt3__117basic_string_viewIcNS_11char_traitsIcEEE4copyEPcmm", scope: !359, file: !360, line: 325, type: !435, isLocal: false, isDefinition: false, scopeLine: 325, flags: DIFlagPublic | DIFlagPrototyped, isOptimized: false)
!435 = !DISubroutineType(types: !436)
!436 = !{!437, !394, !66, !364, !364}
!437 = !DIDerivedType(tag: DW_TAG_typedef, name: "size_type", scope: !359, file: !360, line: 200, baseType: !81)
!438 = !DISubprogram(name: "substr", linkageName: "_ZNKSt3__117basic_string_viewIcNS_11char_traitsIcEEE6substrEmm", scope: !359, file: !360, line: 335, type: !439, isLocal: false, isDefinition: false, scopeLine: 335, flags: DIFlagPublic | DIFlagPrototyped, isOptimized: false)
!439 = !DISubroutineType(types: !440)
!440 = !{!359, !394, !364, !364}
!441 = !DISubprogram(name: "compare", linkageName: "_ZNKSt3__117basic_string_viewIcNS_11char_traitsIcEEE7compareES3_", scope: !359, file: !360, line: 342, type: !442, isLocal: false, isDefinition: false, scopeLine: 342, flags: DIFlagPublic | DIFlagPrototyped, isOptimized: false)
!442 = !DISubroutineType(types: !443)
!443 = !{!14, !394, !359}
!444 = !DISubprogram(name: "compare", linkageName: "_ZNKSt3__117basic_string_viewIcNS_11char_traitsIcEEE7compareEmmS3_", scope: !359, file: !360, line: 352, type: !445, isLocal: false, isDefinition: false, scopeLine: 352, flags: DIFlagPublic | DIFlagPrototyped, isOptimized: false)
!445 = !DISubroutineType(types: !446)
!446 = !{!14, !394, !364, !364, !359}
!447 = !DISubprogram(name: "compare", linkageName: "_ZNKSt3__117basic_string_viewIcNS_11char_traitsIcEEE7compareEmmS3_mm", scope: !359, file: !360, line: 358, type: !448, isLocal: false, isDefinition: false, scopeLine: 358, flags: DIFlagPublic | DIFlagPrototyped, isOptimized: false)
!448 = !DISubroutineType(types: !449)
!449 = !{!14, !394, !364, !364, !359, !364, !364}
!450 = !DISubprogram(name: "compare", linkageName: "_ZNKSt3__117basic_string_viewIcNS_11char_traitsIcEEE7compareEPKc", scope: !359, file: !360, line: 365, type: !451, isLocal: false, isDefinition: false, scopeLine: 365, flags: DIFlagPublic | DIFlagPrototyped, isOptimized: false)
!451 = !DISubroutineType(types: !452)
!452 = !{!14, !394, !16}
!453 = !DISubprogram(name: "compare", linkageName: "_ZNKSt3__117basic_string_viewIcNS_11char_traitsIcEEE7compareEmmPKc", scope: !359, file: !360, line: 371, type: !454, isLocal: false, isDefinition: false, scopeLine: 371, flags: DIFlagPublic | DIFlagPrototyped, isOptimized: false)
!454 = !DISubroutineType(types: !455)
!455 = !{!14, !394, !364, !364, !16}
!456 = !DISubprogram(name: "compare", linkageName: "_ZNKSt3__117basic_string_viewIcNS_11char_traitsIcEEE7compareEmmPKcm", scope: !359, file: !360, line: 377, type: !457, isLocal: false, isDefinition: false, scopeLine: 377, flags: DIFlagPublic | DIFlagPrototyped, isOptimized: false)
!457 = !DISubroutineType(types: !458)
!458 = !{!14, !394, !364, !364, !16, !364}
!459 = !DISubprogram(name: "find", linkageName: "_ZNKSt3__117basic_string_viewIcNS_11char_traitsIcEEE4findES3_m", scope: !359, file: !360, line: 384, type: !460, isLocal: false, isDefinition: false, scopeLine: 384, flags: DIFlagPublic | DIFlagPrototyped, isOptimized: false)
!460 = !DISubroutineType(types: !461)
!461 = !{!437, !394, !359, !364}
!462 = !DISubprogram(name: "find", linkageName: "_ZNKSt3__117basic_string_viewIcNS_11char_traitsIcEEE4findEcm", scope: !359, file: !360, line: 392, type: !463, isLocal: false, isDefinition: false, scopeLine: 392, flags: DIFlagPublic | DIFlagPrototyped, isOptimized: false)
!463 = !DISubroutineType(types: !464)
!464 = !{!437, !394, !18, !364}
!465 = !DISubprogram(name: "find", linkageName: "_ZNKSt3__117basic_string_viewIcNS_11char_traitsIcEEE4findEPKcmm", scope: !359, file: !360, line: 399, type: !466, isLocal: false, isDefinition: false, scopeLine: 399, flags: DIFlagPublic | DIFlagPrototyped, isOptimized: false)
!466 = !DISubroutineType(types: !467)
!467 = !{!437, !394, !16, !364, !364}
!468 = !DISubprogram(name: "find", linkageName: "_ZNKSt3__117basic_string_viewIcNS_11char_traitsIcEEE4findEPKcm", scope: !359, file: !360, line: 407, type: !469, isLocal: false, isDefinition: false, scopeLine: 407, flags: DIFlagPublic | DIFlagPrototyped, isOptimized: false)
!469 = !DISubroutineType(types: !470)
!470 = !{!437, !394, !16, !364}
!471 = !DISubprogram(name: "rfind", linkageName: "_ZNKSt3__117basic_string_viewIcNS_11char_traitsIcEEE5rfindES3_m", scope: !359, file: !360, line: 416, type: !460, isLocal: false, isDefinition: false, scopeLine: 416, flags: DIFlagPublic | DIFlagPrototyped, isOptimized: false)
!472 = !DISubprogram(name: "rfind", linkageName: "_ZNKSt3__117basic_string_viewIcNS_11char_traitsIcEEE5rfindEcm", scope: !359, file: !360, line: 424, type: !463, isLocal: false, isDefinition: false, scopeLine: 424, flags: DIFlagPublic | DIFlagPrototyped, isOptimized: false)
!473 = !DISubprogram(name: "rfind", linkageName: "_ZNKSt3__117basic_string_viewIcNS_11char_traitsIcEEE5rfindEPKcmm", scope: !359, file: !360, line: 431, type: !466, isLocal: false, isDefinition: false, scopeLine: 431, flags: DIFlagPublic | DIFlagPrototyped, isOptimized: false)
!474 = !DISubprogram(name: "rfind", linkageName: "_ZNKSt3__117basic_string_viewIcNS_11char_traitsIcEEE5rfindEPKcm", scope: !359, file: !360, line: 439, type: !469, isLocal: false, isDefinition: false, scopeLine: 439, flags: DIFlagPublic | DIFlagPrototyped, isOptimized: false)
!475 = !DISubprogram(name: "find_first_of", linkageName: "_ZNKSt3__117basic_string_viewIcNS_11char_traitsIcEEE13find_first_ofES3_m", scope: !359, file: !360, line: 448, type: !460, isLocal: false, isDefinition: false, scopeLine: 448, flags: DIFlagPublic | DIFlagPrototyped, isOptimized: false)
!476 = !DISubprogram(name: "find_first_of", linkageName: "_ZNKSt3__117basic_string_viewIcNS_11char_traitsIcEEE13find_first_ofEcm", scope: !359, file: !360, line: 456, type: !463, isLocal: false, isDefinition: false, scopeLine: 456, flags: DIFlagPublic | DIFlagPrototyped, isOptimized: false)
!477 = !DISubprogram(name: "find_first_of", linkageName: "_ZNKSt3__117basic_string_viewIcNS_11char_traitsIcEEE13find_first_ofEPKcmm", scope: !359, file: !360, line: 460, type: !466, isLocal: false, isDefinition: false, scopeLine: 460, flags: DIFlagPublic | DIFlagPrototyped, isOptimized: false)
!478 = !DISubprogram(name: "find_first_of", linkageName: "_ZNKSt3__117basic_string_viewIcNS_11char_traitsIcEEE13find_first_ofEPKcm", scope: !359, file: !360, line: 468, type: !469, isLocal: false, isDefinition: false, scopeLine: 468, flags: DIFlagPublic | DIFlagPrototyped, isOptimized: false)
!479 = !DISubprogram(name: "find_last_of", linkageName: "_ZNKSt3__117basic_string_viewIcNS_11char_traitsIcEEE12find_last_ofES3_m", scope: !359, file: !360, line: 477, type: !460, isLocal: false, isDefinition: false, scopeLine: 477, flags: DIFlagPublic | DIFlagPrototyped, isOptimized: false)
!480 = !DISubprogram(name: "find_last_of", linkageName: "_ZNKSt3__117basic_string_viewIcNS_11char_traitsIcEEE12find_last_ofEcm", scope: !359, file: !360, line: 485, type: !463, isLocal: false, isDefinition: false, scopeLine: 485, flags: DIFlagPublic | DIFlagPrototyped, isOptimized: false)
!481 = !DISubprogram(name: "find_last_of", linkageName: "_ZNKSt3__117basic_string_viewIcNS_11char_traitsIcEEE12find_last_ofEPKcmm", scope: !359, file: !360, line: 489, type: !466, isLocal: false, isDefinition: false, scopeLine: 489, flags: DIFlagPublic | DIFlagPrototyped, isOptimized: false)
!482 = !DISubprogram(name: "find_last_of", linkageName: "_ZNKSt3__117basic_string_viewIcNS_11char_traitsIcEEE12find_last_ofEPKcm", scope: !359, file: !360, line: 497, type: !469, isLocal: false, isDefinition: false, scopeLine: 497, flags: DIFlagPublic | DIFlagPrototyped, isOptimized: false)
!483 = !DISubprogram(name: "find_first_not_of", linkageName: "_ZNKSt3__117basic_string_viewIcNS_11char_traitsIcEEE17find_first_not_ofES3_m", scope: !359, file: !360, line: 506, type: !460, isLocal: false, isDefinition: false, scopeLine: 506, flags: DIFlagPublic | DIFlagPrototyped, isOptimized: false)
!484 = !DISubprogram(name: "find_first_not_of", linkageName: "_ZNKSt3__117basic_string_viewIcNS_11char_traitsIcEEE17find_first_not_ofEcm", scope: !359, file: !360, line: 514, type: !463, isLocal: false, isDefinition: false, scopeLine: 514, flags: DIFlagPublic | DIFlagPrototyped, isOptimized: false)
!485 = !DISubprogram(name: "find_first_not_of", linkageName: "_ZNKSt3__117basic_string_viewIcNS_11char_traitsIcEEE17find_first_not_ofEPKcmm", scope: !359, file: !360, line: 521, type: !466, isLocal: false, isDefinition: false, scopeLine: 521, flags: DIFlagPublic | DIFlagPrototyped, isOptimized: false)
!486 = !DISubprogram(name: "find_first_not_of", linkageName: "_ZNKSt3__117basic_string_viewIcNS_11char_traitsIcEEE17find_first_not_ofEPKcm", scope: !359, file: !360, line: 529, type: !469, isLocal: false, isDefinition: false, scopeLine: 529, flags: DIFlagPublic | DIFlagPrototyped, isOptimized: false)
!487 = !DISubprogram(name: "find_last_not_of", linkageName: "_ZNKSt3__117basic_string_viewIcNS_11char_traitsIcEEE16find_last_not_ofES3_m", scope: !359, file: !360, line: 538, type: !460, isLocal: false, isDefinition: false, scopeLine: 538, flags: DIFlagPublic | DIFlagPrototyped, isOptimized: false)
!488 = !DISubprogram(name: "find_last_not_of", linkageName: "_ZNKSt3__117basic_string_viewIcNS_11char_traitsIcEEE16find_last_not_ofEcm", scope: !359, file: !360, line: 546, type: !463, isLocal: false, isDefinition: false, scopeLine: 546, flags: DIFlagPublic | DIFlagPrototyped, isOptimized: false)
!489 = !DISubprogram(name: "find_last_not_of", linkageName: "_ZNKSt3__117basic_string_viewIcNS_11char_traitsIcEEE16find_last_not_ofEPKcmm", scope: !359, file: !360, line: 553, type: !466, isLocal: false, isDefinition: false, scopeLine: 553, flags: DIFlagPublic | DIFlagPrototyped, isOptimized: false)
!490 = !DISubprogram(name: "find_last_not_of", linkageName: "_ZNKSt3__117basic_string_viewIcNS_11char_traitsIcEEE16find_last_not_ofEPKcm", scope: !359, file: !360, line: 561, type: !469, isLocal: false, isDefinition: false, scopeLine: 561, flags: DIFlagPublic | DIFlagPrototyped, isOptimized: false)
!491 = !{!492, !493}
!492 = !DITemplateTypeParameter(name: "_CharT", type: !18)
!493 = !DITemplateTypeParameter(name: "_Traits", type: !494)
!494 = distinct !DICompositeType(tag: DW_TAG_structure_type, name: "char_traits<char>", scope: !22, file: !495, line: 199, size: 8, elements: !496, templateParams: !542, identifier: "_ZTSNSt3__111char_traitsIcEE")
!495 = !DIFile(filename: "/Applications/Xcode.app/Contents/Developer/Toolchains/XcodeDefault.xctoolchain/usr/include/c++/v1/__string", directory: "/Users/ejiang/Projects/lls/ac/llfiles")
!496 = !{!497, !504, !507, !508, !512, !515, !518, !522, !523, !526, !530, !533, !536, !539}
!497 = !DISubprogram(name: "assign", linkageName: "_ZNSt3__111char_traitsIcE6assignERcRKc", scope: !494, file: !495, line: 208, type: !498, isLocal: false, isDefinition: false, scopeLine: 208, flags: DIFlagPrototyped, isOptimized: false)
!498 = !DISubroutineType(types: !499)
!499 = !{null, !500, !502}
!500 = !DIDerivedType(tag: DW_TAG_reference_type, baseType: !501, size: 64)
!501 = !DIDerivedType(tag: DW_TAG_typedef, name: "char_type", scope: !494, file: !495, line: 201, baseType: !18)
!502 = !DIDerivedType(tag: DW_TAG_reference_type, baseType: !503, size: 64)
!503 = !DIDerivedType(tag: DW_TAG_const_type, baseType: !501)
!504 = !DISubprogram(name: "eq", linkageName: "_ZNSt3__111char_traitsIcE2eqEcc", scope: !494, file: !495, line: 209, type: !505, isLocal: false, isDefinition: false, scopeLine: 209, flags: DIFlagPrototyped, isOptimized: false)
!505 = !DISubroutineType(types: !506)
!506 = !{!38, !501, !501}
!507 = !DISubprogram(name: "lt", linkageName: "_ZNSt3__111char_traitsIcE2ltEcc", scope: !494, file: !495, line: 211, type: !505, isLocal: false, isDefinition: false, scopeLine: 211, flags: DIFlagPrototyped, isOptimized: false)
!508 = !DISubprogram(name: "compare", linkageName: "_ZNSt3__111char_traitsIcE7compareEPKcS3_m", scope: !494, file: !495, line: 215, type: !509, isLocal: false, isDefinition: false, scopeLine: 215, flags: DIFlagPrototyped, isOptimized: false)
!509 = !DISubroutineType(types: !510)
!510 = !{!14, !511, !511, !81}
!511 = !DIDerivedType(tag: DW_TAG_pointer_type, baseType: !503, size: 64)
!512 = !DISubprogram(name: "length", linkageName: "_ZNSt3__111char_traitsIcE6lengthEPKc", scope: !494, file: !495, line: 217, type: !513, isLocal: false, isDefinition: false, scopeLine: 217, flags: DIFlagPrototyped, isOptimized: false)
!513 = !DISubroutineType(types: !514)
!514 = !{!81, !511}
!515 = !DISubprogram(name: "find", linkageName: "_ZNSt3__111char_traitsIcE4findEPKcmRS2_", scope: !494, file: !495, line: 219, type: !516, isLocal: false, isDefinition: false, scopeLine: 219, flags: DIFlagPrototyped, isOptimized: false)
!516 = !DISubroutineType(types: !517)
!517 = !{!511, !511, !81, !502}
!518 = !DISubprogram(name: "move", linkageName: "_ZNSt3__111char_traitsIcE4moveEPcPKcm", scope: !494, file: !495, line: 220, type: !519, isLocal: false, isDefinition: false, scopeLine: 220, flags: DIFlagPrototyped, isOptimized: false)
!519 = !DISubroutineType(types: !520)
!520 = !{!521, !521, !511, !81}
!521 = !DIDerivedType(tag: DW_TAG_pointer_type, baseType: !501, size: 64)
!522 = !DISubprogram(name: "copy", linkageName: "_ZNSt3__111char_traitsIcE4copyEPcPKcm", scope: !494, file: !495, line: 222, type: !519, isLocal: false, isDefinition: false, scopeLine: 222, flags: DIFlagPrototyped, isOptimized: false)
!523 = !DISubprogram(name: "assign", linkageName: "_ZNSt3__111char_traitsIcE6assignEPcmc", scope: !494, file: !495, line: 227, type: !524, isLocal: false, isDefinition: false, scopeLine: 227, flags: DIFlagPrototyped, isOptimized: false)
!524 = !DISubroutineType(types: !525)
!525 = !{!521, !521, !81, !501}
!526 = !DISubprogram(name: "not_eof", linkageName: "_ZNSt3__111char_traitsIcE7not_eofEi", scope: !494, file: !495, line: 230, type: !527, isLocal: false, isDefinition: false, scopeLine: 230, flags: DIFlagPrototyped, isOptimized: false)
!527 = !DISubroutineType(types: !528)
!528 = !{!529, !529}
!529 = !DIDerivedType(tag: DW_TAG_typedef, name: "int_type", scope: !494, file: !495, line: 202, baseType: !14)
!530 = !DISubprogram(name: "to_char_type", linkageName: "_ZNSt3__111char_traitsIcE12to_char_typeEi", scope: !494, file: !495, line: 232, type: !531, isLocal: false, isDefinition: false, scopeLine: 232, flags: DIFlagPrototyped, isOptimized: false)
!531 = !DISubroutineType(types: !532)
!532 = !{!501, !529}
!533 = !DISubprogram(name: "to_int_type", linkageName: "_ZNSt3__111char_traitsIcE11to_int_typeEc", scope: !494, file: !495, line: 234, type: !534, isLocal: false, isDefinition: false, scopeLine: 234, flags: DIFlagPrototyped, isOptimized: false)
!534 = !DISubroutineType(types: !535)
!535 = !{!529, !501}
!536 = !DISubprogram(name: "eq_int_type", linkageName: "_ZNSt3__111char_traitsIcE11eq_int_typeEii", scope: !494, file: !495, line: 236, type: !537, isLocal: false, isDefinition: false, scopeLine: 236, flags: DIFlagPrototyped, isOptimized: false)
!537 = !DISubroutineType(types: !538)
!538 = !{!38, !529, !529}
!539 = !DISubprogram(name: "eof", linkageName: "_ZNSt3__111char_traitsIcE3eofEv", scope: !494, file: !495, line: 238, type: !540, isLocal: false, isDefinition: false, scopeLine: 238, flags: DIFlagPrototyped, isOptimized: false)
!540 = !DISubroutineType(types: !541)
!541 = !{!529}
!542 = !{!492}
!543 = !DISubprogram(name: "basic_string", scope: !24, file: !25, line: 799, type: !544, isLocal: false, isDefinition: false, scopeLine: 799, flags: DIFlagPublic | DIFlagPrototyped, isOptimized: false)
!544 = !DISubroutineType(types: !545)
!545 = !{null, !309, !358, !276}
!546 = !DISubprogram(name: "basic_string", scope: !24, file: !25, line: 808, type: !547, isLocal: false, isDefinition: false, scopeLine: 808, flags: DIFlagPublic | DIFlagPrototyped, isOptimized: false)
!547 = !DISubroutineType(types: !548)
!548 = !{null, !309, !549}
!549 = distinct !DICompositeType(tag: DW_TAG_class_type, name: "initializer_list<char>", scope: !23, file: !550, line: 59, size: 128, elements: !551, templateParams: !570, identifier: "_ZTSSt16initializer_listIcE")
!550 = !DIFile(filename: "/Applications/Xcode.app/Contents/Developer/Toolchains/XcodeDefault.xctoolchain/usr/include/c++/v1/initializer_list", directory: "/Users/ejiang/Projects/lls/ac/llfiles")
!551 = !{!552, !553, !554, !558, !561, !566, !569}
!552 = !DIDerivedType(tag: DW_TAG_member, name: "__begin_", scope: !549, file: !550, line: 61, baseType: !16, size: 64)
!553 = !DIDerivedType(tag: DW_TAG_member, name: "__size_", scope: !549, file: !550, line: 62, baseType: !81, size: 64, offset: 64)
!554 = !DISubprogram(name: "initializer_list", scope: !549, file: !550, line: 66, type: !555, isLocal: false, isDefinition: false, scopeLine: 66, flags: DIFlagPrototyped, isOptimized: false)
!555 = !DISubroutineType(types: !556)
!556 = !{null, !557, !16, !81}
!557 = !DIDerivedType(tag: DW_TAG_pointer_type, baseType: !549, size: 64, flags: DIFlagArtificial | DIFlagObjectPointer)
!558 = !DISubprogram(name: "initializer_list", scope: !549, file: !550, line: 81, type: !559, isLocal: false, isDefinition: false, scopeLine: 81, flags: DIFlagPublic | DIFlagPrototyped, isOptimized: false)
!559 = !DISubroutineType(types: !560)
!560 = !{null, !557}
!561 = !DISubprogram(name: "size", linkageName: "_ZNKSt16initializer_listIcE4sizeEv", scope: !549, file: !550, line: 85, type: !562, isLocal: false, isDefinition: false, scopeLine: 85, flags: DIFlagPublic | DIFlagPrototyped, isOptimized: false)
!562 = !DISubroutineType(types: !563)
!563 = !{!81, !564}
!564 = !DIDerivedType(tag: DW_TAG_pointer_type, baseType: !565, size: 64, flags: DIFlagArtificial | DIFlagObjectPointer)
!565 = !DIDerivedType(tag: DW_TAG_const_type, baseType: !549)
!566 = !DISubprogram(name: "begin", linkageName: "_ZNKSt16initializer_listIcE5beginEv", scope: !549, file: !550, line: 89, type: !567, isLocal: false, isDefinition: false, scopeLine: 89, flags: DIFlagPublic | DIFlagPrototyped, isOptimized: false)
!567 = !DISubroutineType(types: !568)
!568 = !{!16, !564}
!569 = !DISubprogram(name: "end", linkageName: "_ZNKSt16initializer_listIcE3endEv", scope: !549, file: !550, line: 93, type: !567, isLocal: false, isDefinition: false, scopeLine: 93, flags: DIFlagPublic | DIFlagPrototyped, isOptimized: false)
!570 = !{!571}
!571 = !DITemplateTypeParameter(name: "_Ep", type: !18)
!572 = !DISubprogram(name: "basic_string", scope: !24, file: !25, line: 810, type: !573, isLocal: false, isDefinition: false, scopeLine: 810, flags: DIFlagPublic | DIFlagPrototyped, isOptimized: false)
!573 = !DISubroutineType(types: !574)
!574 = !{null, !309, !549, !276}
!575 = !DISubprogram(name: "~basic_string", scope: !24, file: !25, line: 813, type: !307, isLocal: false, isDefinition: false, scopeLine: 813, flags: DIFlagPublic | DIFlagPrototyped, isOptimized: false)
!576 = !DISubprogram(name: "operator basic_string_view", linkageName: "_ZNKSt3__112basic_stringIcNS_11char_traitsIcEENS_9allocatorIcEEEcvNS_17basic_string_viewIcS2_EEEv", scope: !24, file: !25, line: 816, type: !577, isLocal: false, isDefinition: false, scopeLine: 816, flags: DIFlagPublic | DIFlagPrototyped, isOptimized: false)
!577 = !DISubroutineType(types: !578)
!578 = !{!358, !579}
!579 = !DIDerivedType(tag: DW_TAG_pointer_type, baseType: !320, size: 64, flags: DIFlagArtificial | DIFlagObjectPointer)
!580 = !DISubprogram(name: "operator=", linkageName: "_ZNSt3__112basic_stringIcNS_11char_traitsIcEENS_9allocatorIcEEEaSERKS5_", scope: !24, file: !25, line: 818, type: !581, isLocal: false, isDefinition: false, scopeLine: 818, flags: DIFlagPublic | DIFlagPrototyped, isOptimized: false)
!581 = !DISubroutineType(types: !582)
!582 = !{!583, !309, !319}
!583 = !DIDerivedType(tag: DW_TAG_reference_type, baseType: !24, size: 64)
!584 = !DISubprogram(name: "operator=", linkageName: "_ZNSt3__112basic_stringIcNS_11char_traitsIcEENS_9allocatorIcEEEaSEOS5_", scope: !24, file: !25, line: 827, type: !585, isLocal: false, isDefinition: false, scopeLine: 827, flags: DIFlagPublic | DIFlagPrototyped, isOptimized: false)
!585 = !DISubroutineType(types: !586)
!586 = !{!583, !309, !327}
!587 = !DISubprogram(name: "operator=", linkageName: "_ZNSt3__112basic_stringIcNS_11char_traitsIcEENS_9allocatorIcEEEaSESt16initializer_listIcE", scope: !24, file: !25, line: 830, type: !588, isLocal: false, isDefinition: false, scopeLine: 830, flags: DIFlagPublic | DIFlagPrototyped, isOptimized: false)
!588 = !DISubroutineType(types: !589)
!589 = !{!583, !309, !549}
!590 = !DISubprogram(name: "operator=", linkageName: "_ZNSt3__112basic_stringIcNS_11char_traitsIcEENS_9allocatorIcEEEaSEPKc", scope: !24, file: !25, line: 832, type: !591, isLocal: false, isDefinition: false, scopeLine: 832, flags: DIFlagPublic | DIFlagPrototyped, isOptimized: false)
!591 = !DISubroutineType(types: !592)
!592 = !{!583, !309, !593}
!593 = !DIDerivedType(tag: DW_TAG_pointer_type, baseType: !594, size: 64)
!594 = !DIDerivedType(tag: DW_TAG_const_type, baseType: !226)
!595 = !DISubprogram(name: "operator=", linkageName: "_ZNSt3__112basic_stringIcNS_11char_traitsIcEENS_9allocatorIcEEEaSEc", scope: !24, file: !25, line: 833, type: !596, isLocal: false, isDefinition: false, scopeLine: 833, flags: DIFlagPublic | DIFlagPrototyped, isOptimized: false)
!596 = !DISubroutineType(types: !597)
!597 = !{!583, !309, !226}
!598 = !DISubprogram(name: "begin", linkageName: "_ZNSt3__112basic_stringIcNS_11char_traitsIcEENS_9allocatorIcEEE5beginEv", scope: !24, file: !25, line: 850, type: !599, isLocal: false, isDefinition: false, scopeLine: 850, flags: DIFlagPublic | DIFlagPrototyped, isOptimized: false)
!599 = !DISubroutineType(types: !600)
!600 = !{!601, !309}
!601 = !DIDerivedType(tag: DW_TAG_typedef, name: "iterator", scope: !24, file: !25, line: 656, baseType: !602)
!602 = !DICompositeType(tag: DW_TAG_class_type, name: "__wrap_iter<char *>", scope: !22, file: !403, line: 1279, flags: DIFlagFwdDecl, identifier: "_ZTSNSt3__111__wrap_iterIPcEE")
!603 = !DISubprogram(name: "begin", linkageName: "_ZNKSt3__112basic_stringIcNS_11char_traitsIcEENS_9allocatorIcEEE5beginEv", scope: !24, file: !25, line: 853, type: !604, isLocal: false, isDefinition: false, scopeLine: 853, flags: DIFlagPublic | DIFlagPrototyped, isOptimized: false)
!604 = !DISubroutineType(types: !605)
!605 = !{!606, !579}
!606 = !DIDerivedType(tag: DW_TAG_typedef, name: "const_iterator", scope: !24, file: !25, line: 657, baseType: !607)
!607 = !DICompositeType(tag: DW_TAG_class_type, name: "__wrap_iter<const char *>", scope: !22, file: !403, line: 1279, flags: DIFlagFwdDecl, identifier: "_ZTSNSt3__111__wrap_iterIPKcEE")
!608 = !DISubprogram(name: "end", linkageName: "_ZNSt3__112basic_stringIcNS_11char_traitsIcEENS_9allocatorIcEEE3endEv", scope: !24, file: !25, line: 856, type: !599, isLocal: false, isDefinition: false, scopeLine: 856, flags: DIFlagPublic | DIFlagPrototyped, isOptimized: false)
!609 = !DISubprogram(name: "end", linkageName: "_ZNKSt3__112basic_stringIcNS_11char_traitsIcEENS_9allocatorIcEEE3endEv", scope: !24, file: !25, line: 859, type: !604, isLocal: false, isDefinition: false, scopeLine: 859, flags: DIFlagPublic | DIFlagPrototyped, isOptimized: false)
!610 = !DISubprogram(name: "rbegin", linkageName: "_ZNSt3__112basic_stringIcNS_11char_traitsIcEENS_9allocatorIcEEE6rbeginEv", scope: !24, file: !25, line: 863, type: !611, isLocal: false, isDefinition: false, scopeLine: 863, flags: DIFlagPublic | DIFlagPrototyped, isOptimized: false)
!611 = !DISubroutineType(types: !612)
!612 = !{!613, !309}
!613 = !DIDerivedType(tag: DW_TAG_typedef, name: "reverse_iterator", scope: !24, file: !25, line: 659, baseType: !614)
!614 = !DICompositeType(tag: DW_TAG_class_type, name: "reverse_iterator<std::__1::__wrap_iter<char *> >", scope: !22, file: !403, line: 636, flags: DIFlagFwdDecl, identifier: "_ZTSNSt3__116reverse_iteratorINS_11__wrap_iterIPcEEEE")
!615 = !DISubprogram(name: "rbegin", linkageName: "_ZNKSt3__112basic_stringIcNS_11char_traitsIcEENS_9allocatorIcEEE6rbeginEv", scope: !24, file: !25, line: 866, type: !616, isLocal: false, isDefinition: false, scopeLine: 866, flags: DIFlagPublic | DIFlagPrototyped, isOptimized: false)
!616 = !DISubroutineType(types: !617)
!617 = !{!618, !579}
!618 = !DIDerivedType(tag: DW_TAG_typedef, name: "const_reverse_iterator", scope: !24, file: !25, line: 660, baseType: !619)
!619 = !DICompositeType(tag: DW_TAG_class_type, name: "reverse_iterator<std::__1::__wrap_iter<const char *> >", scope: !22, file: !403, line: 636, flags: DIFlagFwdDecl, identifier: "_ZTSNSt3__116reverse_iteratorINS_11__wrap_iterIPKcEEEE")
!620 = !DISubprogram(name: "rend", linkageName: "_ZNSt3__112basic_stringIcNS_11char_traitsIcEENS_9allocatorIcEEE4rendEv", scope: !24, file: !25, line: 869, type: !611, isLocal: false, isDefinition: false, scopeLine: 869, flags: DIFlagPublic | DIFlagPrototyped, isOptimized: false)
!621 = !DISubprogram(name: "rend", linkageName: "_ZNKSt3__112basic_stringIcNS_11char_traitsIcEENS_9allocatorIcEEE4rendEv", scope: !24, file: !25, line: 872, type: !616, isLocal: false, isDefinition: false, scopeLine: 872, flags: DIFlagPublic | DIFlagPrototyped, isOptimized: false)
!622 = !DISubprogram(name: "cbegin", linkageName: "_ZNKSt3__112basic_stringIcNS_11char_traitsIcEENS_9allocatorIcEEE6cbeginEv", scope: !24, file: !25, line: 876, type: !604, isLocal: false, isDefinition: false, scopeLine: 876, flags: DIFlagPublic | DIFlagPrototyped, isOptimized: false)
!623 = !DISubprogram(name: "cend", linkageName: "_ZNKSt3__112basic_stringIcNS_11char_traitsIcEENS_9allocatorIcEEE4cendEv", scope: !24, file: !25, line: 879, type: !604, isLocal: false, isDefinition: false, scopeLine: 879, flags: DIFlagPublic | DIFlagPrototyped, isOptimized: false)
!624 = !DISubprogram(name: "crbegin", linkageName: "_ZNKSt3__112basic_stringIcNS_11char_traitsIcEENS_9allocatorIcEEE7crbeginEv", scope: !24, file: !25, line: 882, type: !616, isLocal: false, isDefinition: false, scopeLine: 882, flags: DIFlagPublic | DIFlagPrototyped, isOptimized: false)
!625 = !DISubprogram(name: "crend", linkageName: "_ZNKSt3__112basic_stringIcNS_11char_traitsIcEENS_9allocatorIcEEE5crendEv", scope: !24, file: !25, line: 885, type: !616, isLocal: false, isDefinition: false, scopeLine: 885, flags: DIFlagPublic | DIFlagPrototyped, isOptimized: false)
!626 = !DISubprogram(name: "size", linkageName: "_ZNKSt3__112basic_stringIcNS_11char_traitsIcEENS_9allocatorIcEEE4sizeEv", scope: !24, file: !25, line: 888, type: !627, isLocal: false, isDefinition: false, scopeLine: 888, flags: DIFlagPublic | DIFlagPrototyped, isOptimized: false)
!627 = !DISubroutineType(types: !628)
!628 = !{!41, !579}
!629 = !DISubprogram(name: "length", linkageName: "_ZNKSt3__112basic_stringIcNS_11char_traitsIcEENS_9allocatorIcEEE6lengthEv", scope: !24, file: !25, line: 890, type: !627, isLocal: false, isDefinition: false, scopeLine: 890, flags: DIFlagPublic | DIFlagPrototyped, isOptimized: false)
!630 = !DISubprogram(name: "max_size", linkageName: "_ZNKSt3__112basic_stringIcNS_11char_traitsIcEENS_9allocatorIcEEE8max_sizeEv", scope: !24, file: !25, line: 891, type: !627, isLocal: false, isDefinition: false, scopeLine: 891, flags: DIFlagPublic | DIFlagPrototyped, isOptimized: false)
!631 = !DISubprogram(name: "capacity", linkageName: "_ZNKSt3__112basic_stringIcNS_11char_traitsIcEENS_9allocatorIcEEE8capacityEv", scope: !24, file: !25, line: 892, type: !627, isLocal: false, isDefinition: false, scopeLine: 892, flags: DIFlagPublic | DIFlagPrototyped, isOptimized: false)
!632 = !DISubprogram(name: "resize", linkageName: "_ZNSt3__112basic_stringIcNS_11char_traitsIcEENS_9allocatorIcEEE6resizeEmc", scope: !24, file: !25, line: 896, type: !633, isLocal: false, isDefinition: false, scopeLine: 896, flags: DIFlagPublic | DIFlagPrototyped, isOptimized: false)
!633 = !DISubroutineType(types: !634)
!634 = !{null, !309, !41, !226}
!635 = !DISubprogram(name: "resize", linkageName: "_ZNSt3__112basic_stringIcNS_11char_traitsIcEENS_9allocatorIcEEE6resizeEm", scope: !24, file: !25, line: 897, type: !636, isLocal: false, isDefinition: false, scopeLine: 897, flags: DIFlagPublic | DIFlagPrototyped, isOptimized: false)
!636 = !DISubroutineType(types: !637)
!637 = !{null, !309, !41}
!638 = !DISubprogram(name: "reserve", linkageName: "_ZNSt3__112basic_stringIcNS_11char_traitsIcEENS_9allocatorIcEEE7reserveEm", scope: !24, file: !25, line: 899, type: !636, isLocal: false, isDefinition: false, scopeLine: 899, flags: DIFlagPublic | DIFlagPrototyped, isOptimized: false)
!639 = !DISubprogram(name: "shrink_to_fit", linkageName: "_ZNSt3__112basic_stringIcNS_11char_traitsIcEENS_9allocatorIcEEE13shrink_to_fitEv", scope: !24, file: !25, line: 901, type: !307, isLocal: false, isDefinition: false, scopeLine: 901, flags: DIFlagPublic | DIFlagPrototyped, isOptimized: false)
!640 = !DISubprogram(name: "clear", linkageName: "_ZNSt3__112basic_stringIcNS_11char_traitsIcEENS_9allocatorIcEEE5clearEv", scope: !24, file: !25, line: 903, type: !307, isLocal: false, isDefinition: false, scopeLine: 903, flags: DIFlagPublic | DIFlagPrototyped, isOptimized: false)
!641 = !DISubprogram(name: "empty", linkageName: "_ZNKSt3__112basic_stringIcNS_11char_traitsIcEENS_9allocatorIcEEE5emptyEv", scope: !24, file: !25, line: 904, type: !642, isLocal: false, isDefinition: false, scopeLine: 904, flags: DIFlagPublic | DIFlagPrototyped, isOptimized: false)
!642 = !DISubroutineType(types: !643)
!643 = !{!38, !579}
!644 = !DISubprogram(name: "operator[]", linkageName: "_ZNKSt3__112basic_stringIcNS_11char_traitsIcEENS_9allocatorIcEEEixEm", scope: !24, file: !25, line: 906, type: !645, isLocal: false, isDefinition: false, scopeLine: 906, flags: DIFlagPublic | DIFlagPrototyped, isOptimized: false)
!645 = !DISubroutineType(types: !646)
!646 = !{!647, !579, !41}
!647 = !DIDerivedType(tag: DW_TAG_typedef, name: "const_reference", scope: !24, file: !25, line: 643, baseType: !648)
!648 = !DIDerivedType(tag: DW_TAG_reference_type, baseType: !594, size: 64)
!649 = !DISubprogram(name: "operator[]", linkageName: "_ZNSt3__112basic_stringIcNS_11char_traitsIcEENS_9allocatorIcEEEixEm", scope: !24, file: !25, line: 907, type: !650, isLocal: false, isDefinition: false, scopeLine: 907, flags: DIFlagPublic | DIFlagPrototyped, isOptimized: false)
!650 = !DISubroutineType(types: !651)
!651 = !{!652, !309, !41}
!652 = !DIDerivedType(tag: DW_TAG_typedef, name: "reference", scope: !24, file: !25, line: 642, baseType: !653)
!653 = !DIDerivedType(tag: DW_TAG_reference_type, baseType: !226, size: 64)
!654 = !DISubprogram(name: "at", linkageName: "_ZNKSt3__112basic_stringIcNS_11char_traitsIcEENS_9allocatorIcEEE2atEm", scope: !24, file: !25, line: 909, type: !645, isLocal: false, isDefinition: false, scopeLine: 909, flags: DIFlagPublic | DIFlagPrototyped, isOptimized: false)
!655 = !DISubprogram(name: "at", linkageName: "_ZNSt3__112basic_stringIcNS_11char_traitsIcEENS_9allocatorIcEEE2atEm", scope: !24, file: !25, line: 910, type: !650, isLocal: false, isDefinition: false, scopeLine: 910, flags: DIFlagPublic | DIFlagPrototyped, isOptimized: false)
!656 = !DISubprogram(name: "operator+=", linkageName: "_ZNSt3__112basic_stringIcNS_11char_traitsIcEENS_9allocatorIcEEEpLERKS5_", scope: !24, file: !25, line: 912, type: !581, isLocal: false, isDefinition: false, scopeLine: 912, flags: DIFlagPublic | DIFlagPrototyped, isOptimized: false)
!657 = !DISubprogram(name: "operator+=", linkageName: "_ZNSt3__112basic_stringIcNS_11char_traitsIcEENS_9allocatorIcEEEpLENS_17basic_string_viewIcS2_EE", scope: !24, file: !25, line: 913, type: !658, isLocal: false, isDefinition: false, scopeLine: 913, flags: DIFlagPublic | DIFlagPrototyped, isOptimized: false)
!658 = !DISubroutineType(types: !659)
!659 = !{!583, !309, !358}
!660 = !DISubprogram(name: "operator+=", linkageName: "_ZNSt3__112basic_stringIcNS_11char_traitsIcEENS_9allocatorIcEEEpLEPKc", scope: !24, file: !25, line: 914, type: !591, isLocal: false, isDefinition: false, scopeLine: 914, flags: DIFlagPublic | DIFlagPrototyped, isOptimized: false)
!661 = !DISubprogram(name: "operator+=", linkageName: "_ZNSt3__112basic_stringIcNS_11char_traitsIcEENS_9allocatorIcEEEpLEc", scope: !24, file: !25, line: 915, type: !596, isLocal: false, isDefinition: false, scopeLine: 915, flags: DIFlagPublic | DIFlagPrototyped, isOptimized: false)
!662 = !DISubprogram(name: "operator+=", linkageName: "_ZNSt3__112basic_stringIcNS_11char_traitsIcEENS_9allocatorIcEEEpLESt16initializer_listIcE", scope: !24, file: !25, line: 917, type: !588, isLocal: false, isDefinition: false, scopeLine: 917, flags: DIFlagPublic | DIFlagPrototyped, isOptimized: false)
!663 = !DISubprogram(name: "append", linkageName: "_ZNSt3__112basic_stringIcNS_11char_traitsIcEENS_9allocatorIcEEE6appendERKS5_", scope: !24, file: !25, line: 921, type: !581, isLocal: false, isDefinition: false, scopeLine: 921, flags: DIFlagPublic | DIFlagPrototyped, isOptimized: false)
!664 = !DISubprogram(name: "append", linkageName: "_ZNSt3__112basic_stringIcNS_11char_traitsIcEENS_9allocatorIcEEE6appendENS_17basic_string_viewIcS2_EE", scope: !24, file: !25, line: 923, type: !658, isLocal: false, isDefinition: false, scopeLine: 923, flags: DIFlagPublic | DIFlagPrototyped, isOptimized: false)
!665 = !DISubprogram(name: "append", linkageName: "_ZNSt3__112basic_stringIcNS_11char_traitsIcEENS_9allocatorIcEEE6appendERKS5_mm", scope: !24, file: !25, line: 924, type: !666, isLocal: false, isDefinition: false, scopeLine: 924, flags: DIFlagPublic | DIFlagPrototyped, isOptimized: false)
!666 = !DISubroutineType(types: !667)
!667 = !{!583, !309, !319, !41, !41}
!668 = !DISubprogram(name: "append", linkageName: "_ZNSt3__112basic_stringIcNS_11char_traitsIcEENS_9allocatorIcEEE6appendEPKcm", scope: !24, file: !25, line: 933, type: !669, isLocal: false, isDefinition: false, scopeLine: 933, flags: DIFlagPublic | DIFlagPrototyped, isOptimized: false)
!669 = !DISubroutineType(types: !670)
!670 = !{!583, !309, !593, !41}
!671 = !DISubprogram(name: "append", linkageName: "_ZNSt3__112basic_stringIcNS_11char_traitsIcEENS_9allocatorIcEEE6appendEPKc", scope: !24, file: !25, line: 934, type: !591, isLocal: false, isDefinition: false, scopeLine: 934, flags: DIFlagPublic | DIFlagPrototyped, isOptimized: false)
!672 = !DISubprogram(name: "append", linkageName: "_ZNSt3__112basic_stringIcNS_11char_traitsIcEENS_9allocatorIcEEE6appendEmc", scope: !24, file: !25, line: 935, type: !673, isLocal: false, isDefinition: false, scopeLine: 935, flags: DIFlagPublic | DIFlagPrototyped, isOptimized: false)
!673 = !DISubroutineType(types: !674)
!674 = !{!583, !309, !41, !226}
!675 = !DISubprogram(name: "append", linkageName: "_ZNSt3__112basic_stringIcNS_11char_traitsIcEENS_9allocatorIcEEE6appendESt16initializer_listIcE", scope: !24, file: !25, line: 968, type: !588, isLocal: false, isDefinition: false, scopeLine: 968, flags: DIFlagPublic | DIFlagPrototyped, isOptimized: false)
!676 = !DISubprogram(name: "push_back", linkageName: "_ZNSt3__112basic_stringIcNS_11char_traitsIcEENS_9allocatorIcEEE9push_backEc", scope: !24, file: !25, line: 971, type: !677, isLocal: false, isDefinition: false, scopeLine: 971, flags: DIFlagPublic | DIFlagPrototyped, isOptimized: false)
!677 = !DISubroutineType(types: !678)
!678 = !{null, !309, !226}
!679 = !DISubprogram(name: "pop_back", linkageName: "_ZNSt3__112basic_stringIcNS_11char_traitsIcEENS_9allocatorIcEEE8pop_backEv", scope: !24, file: !25, line: 973, type: !307, isLocal: false, isDefinition: false, scopeLine: 973, flags: DIFlagPublic | DIFlagPrototyped, isOptimized: false)
!680 = !DISubprogram(name: "front", linkageName: "_ZNSt3__112basic_stringIcNS_11char_traitsIcEENS_9allocatorIcEEE5frontEv", scope: !24, file: !25, line: 974, type: !681, isLocal: false, isDefinition: false, scopeLine: 974, flags: DIFlagPublic | DIFlagPrototyped, isOptimized: false)
!681 = !DISubroutineType(types: !682)
!682 = !{!652, !309}
!683 = !DISubprogram(name: "front", linkageName: "_ZNKSt3__112basic_stringIcNS_11char_traitsIcEENS_9allocatorIcEEE5frontEv", scope: !24, file: !25, line: 975, type: !684, isLocal: false, isDefinition: false, scopeLine: 975, flags: DIFlagPublic | DIFlagPrototyped, isOptimized: false)
!684 = !DISubroutineType(types: !685)
!685 = !{!647, !579}
!686 = !DISubprogram(name: "back", linkageName: "_ZNSt3__112basic_stringIcNS_11char_traitsIcEENS_9allocatorIcEEE4backEv", scope: !24, file: !25, line: 976, type: !681, isLocal: false, isDefinition: false, scopeLine: 976, flags: DIFlagPublic | DIFlagPrototyped, isOptimized: false)
!687 = !DISubprogram(name: "back", linkageName: "_ZNKSt3__112basic_stringIcNS_11char_traitsIcEENS_9allocatorIcEEE4backEv", scope: !24, file: !25, line: 977, type: !684, isLocal: false, isDefinition: false, scopeLine: 977, flags: DIFlagPublic | DIFlagPrototyped, isOptimized: false)
!688 = !DISubprogram(name: "assign", linkageName: "_ZNSt3__112basic_stringIcNS_11char_traitsIcEENS_9allocatorIcEEE6assignENS_17basic_string_viewIcS2_EE", scope: !24, file: !25, line: 980, type: !658, isLocal: false, isDefinition: false, scopeLine: 980, flags: DIFlagPublic | DIFlagPrototyped, isOptimized: false)
!689 = !DISubprogram(name: "assign", linkageName: "_ZNSt3__112basic_stringIcNS_11char_traitsIcEENS_9allocatorIcEEE6assignERKS5_", scope: !24, file: !25, line: 982, type: !581, isLocal: false, isDefinition: false, scopeLine: 982, flags: DIFlagPublic | DIFlagPrototyped, isOptimized: false)
!690 = !DISubprogram(name: "assign", linkageName: "_ZNSt3__112basic_stringIcNS_11char_traitsIcEENS_9allocatorIcEEE6assignEOS5_", scope: !24, file: !25, line: 985, type: !585, isLocal: false, isDefinition: false, scopeLine: 985, flags: DIFlagPublic | DIFlagPrototyped, isOptimized: false)
!691 = !DISubprogram(name: "assign", linkageName: "_ZNSt3__112basic_stringIcNS_11char_traitsIcEENS_9allocatorIcEEE6assignERKS5_mm", scope: !24, file: !25, line: 989, type: !666, isLocal: false, isDefinition: false, scopeLine: 989, flags: DIFlagPublic | DIFlagPrototyped, isOptimized: false)
!692 = !DISubprogram(name: "assign", linkageName: "_ZNSt3__112basic_stringIcNS_11char_traitsIcEENS_9allocatorIcEEE6assignEPKcm", scope: !24, file: !25, line: 998, type: !669, isLocal: false, isDefinition: false, scopeLine: 998, flags: DIFlagPublic | DIFlagPrototyped, isOptimized: false)
!693 = !DISubprogram(name: "assign", linkageName: "_ZNSt3__112basic_stringIcNS_11char_traitsIcEENS_9allocatorIcEEE6assignEPKc", scope: !24, file: !25, line: 999, type: !591, isLocal: false, isDefinition: false, scopeLine: 999, flags: DIFlagPublic | DIFlagPrototyped, isOptimized: false)
!694 = !DISubprogram(name: "assign", linkageName: "_ZNSt3__112basic_stringIcNS_11char_traitsIcEENS_9allocatorIcEEE6assignEmc", scope: !24, file: !25, line: 1000, type: !673, isLocal: false, isDefinition: false, scopeLine: 1000, flags: DIFlagPublic | DIFlagPrototyped, isOptimized: false)
!695 = !DISubprogram(name: "assign", linkageName: "_ZNSt3__112basic_stringIcNS_11char_traitsIcEENS_9allocatorIcEEE6assignESt16initializer_listIcE", scope: !24, file: !25, line: 1021, type: !588, isLocal: false, isDefinition: false, scopeLine: 1021, flags: DIFlagPublic | DIFlagPrototyped, isOptimized: false)
!696 = !DISubprogram(name: "insert", linkageName: "_ZNSt3__112basic_stringIcNS_11char_traitsIcEENS_9allocatorIcEEE6insertEmRKS5_", scope: !24, file: !25, line: 1025, type: !697, isLocal: false, isDefinition: false, scopeLine: 1025, flags: DIFlagPublic | DIFlagPrototyped, isOptimized: false)
!697 = !DISubroutineType(types: !698)
!698 = !{!583, !309, !41, !319}
!699 = !DISubprogram(name: "insert", linkageName: "_ZNSt3__112basic_stringIcNS_11char_traitsIcEENS_9allocatorIcEEE6insertEmNS_17basic_string_viewIcS2_EE", scope: !24, file: !25, line: 1027, type: !700, isLocal: false, isDefinition: false, scopeLine: 1027, flags: DIFlagPublic | DIFlagPrototyped, isOptimized: false)
!700 = !DISubroutineType(types: !701)
!701 = !{!583, !309, !41, !358}
!702 = !DISubprogram(name: "insert", linkageName: "_ZNSt3__112basic_stringIcNS_11char_traitsIcEENS_9allocatorIcEEE6insertEmRKS5_mm", scope: !24, file: !25, line: 1036, type: !703, isLocal: false, isDefinition: false, scopeLine: 1036, flags: DIFlagPublic | DIFlagPrototyped, isOptimized: false)
!703 = !DISubroutineType(types: !704)
!704 = !{!583, !309, !41, !319, !41, !41}
!705 = !DISubprogram(name: "insert", linkageName: "_ZNSt3__112basic_stringIcNS_11char_traitsIcEENS_9allocatorIcEEE6insertEmPKcm", scope: !24, file: !25, line: 1037, type: !706, isLocal: false, isDefinition: false, scopeLine: 1037, flags: DIFlagPublic | DIFlagPrototyped, isOptimized: false)
!706 = !DISubroutineType(types: !707)
!707 = !{!583, !309, !41, !593, !41}
!708 = !DISubprogram(name: "insert", linkageName: "_ZNSt3__112basic_stringIcNS_11char_traitsIcEENS_9allocatorIcEEE6insertEmPKc", scope: !24, file: !25, line: 1038, type: !709, isLocal: false, isDefinition: false, scopeLine: 1038, flags: DIFlagPublic | DIFlagPrototyped, isOptimized: false)
!709 = !DISubroutineType(types: !710)
!710 = !{!583, !309, !41, !593}
!711 = !DISubprogram(name: "insert", linkageName: "_ZNSt3__112basic_stringIcNS_11char_traitsIcEENS_9allocatorIcEEE6insertEmmc", scope: !24, file: !25, line: 1039, type: !712, isLocal: false, isDefinition: false, scopeLine: 1039, flags: DIFlagPublic | DIFlagPrototyped, isOptimized: false)
!712 = !DISubroutineType(types: !713)
!713 = !{!583, !309, !41, !41, !226}
!714 = !DISubprogram(name: "insert", linkageName: "_ZNSt3__112basic_stringIcNS_11char_traitsIcEENS_9allocatorIcEEE6insertENS_11__wrap_iterIPKcEEc", scope: !24, file: !25, line: 1040, type: !715, isLocal: false, isDefinition: false, scopeLine: 1040, flags: DIFlagPublic | DIFlagPrototyped, isOptimized: false)
!715 = !DISubroutineType(types: !716)
!716 = !{!601, !309, !606, !226}
!717 = !DISubprogram(name: "insert", linkageName: "_ZNSt3__112basic_stringIcNS_11char_traitsIcEENS_9allocatorIcEEE6insertENS_11__wrap_iterIPKcEEmc", scope: !24, file: !25, line: 1042, type: !718, isLocal: false, isDefinition: false, scopeLine: 1042, flags: DIFlagPublic | DIFlagPrototyped, isOptimized: false)
!718 = !DISubroutineType(types: !719)
!719 = !{!601, !309, !606, !41, !226}
!720 = !DISubprogram(name: "insert", linkageName: "_ZNSt3__112basic_stringIcNS_11char_traitsIcEENS_9allocatorIcEEE6insertENS_11__wrap_iterIPKcEESt16initializer_listIcE", scope: !24, file: !25, line: 1063, type: !721, isLocal: false, isDefinition: false, scopeLine: 1063, flags: DIFlagPublic | DIFlagPrototyped, isOptimized: false)
!721 = !DISubroutineType(types: !722)
!722 = !{!601, !309, !606, !549}
!723 = !DISubprogram(name: "erase", linkageName: "_ZNSt3__112basic_stringIcNS_11char_traitsIcEENS_9allocatorIcEEE5eraseEmm", scope: !24, file: !25, line: 1067, type: !724, isLocal: false, isDefinition: false, scopeLine: 1067, flags: DIFlagPublic | DIFlagPrototyped, isOptimized: false)
!724 = !DISubroutineType(types: !725)
!725 = !{!583, !309, !41, !41}
!726 = !DISubprogram(name: "erase", linkageName: "_ZNSt3__112basic_stringIcNS_11char_traitsIcEENS_9allocatorIcEEE5eraseENS_11__wrap_iterIPKcEE", scope: !24, file: !25, line: 1069, type: !727, isLocal: false, isDefinition: false, scopeLine: 1069, flags: DIFlagPublic | DIFlagPrototyped, isOptimized: false)
!727 = !DISubroutineType(types: !728)
!728 = !{!601, !309, !606}
!729 = !DISubprogram(name: "erase", linkageName: "_ZNSt3__112basic_stringIcNS_11char_traitsIcEENS_9allocatorIcEEE5eraseENS_11__wrap_iterIPKcEES9_", scope: !24, file: !25, line: 1071, type: !730, isLocal: false, isDefinition: false, scopeLine: 1071, flags: DIFlagPublic | DIFlagPrototyped, isOptimized: false)
!730 = !DISubroutineType(types: !731)
!731 = !{!601, !309, !606, !606}
!732 = !DISubprogram(name: "replace", linkageName: "_ZNSt3__112basic_stringIcNS_11char_traitsIcEENS_9allocatorIcEEE7replaceEmmRKS5_", scope: !24, file: !25, line: 1074, type: !733, isLocal: false, isDefinition: false, scopeLine: 1074, flags: DIFlagPublic | DIFlagPrototyped, isOptimized: false)
!733 = !DISubroutineType(types: !734)
!734 = !{!583, !309, !41, !41, !319}
!735 = !DISubprogram(name: "replace", linkageName: "_ZNSt3__112basic_stringIcNS_11char_traitsIcEENS_9allocatorIcEEE7replaceEmmNS_17basic_string_viewIcS2_EE", scope: !24, file: !25, line: 1076, type: !736, isLocal: false, isDefinition: false, scopeLine: 1076, flags: DIFlagPublic | DIFlagPrototyped, isOptimized: false)
!736 = !DISubroutineType(types: !737)
!737 = !{!583, !309, !41, !41, !358}
!738 = !DISubprogram(name: "replace", linkageName: "_ZNSt3__112basic_stringIcNS_11char_traitsIcEENS_9allocatorIcEEE7replaceEmmRKS5_mm", scope: !24, file: !25, line: 1077, type: !739, isLocal: false, isDefinition: false, scopeLine: 1077, flags: DIFlagPublic | DIFlagPrototyped, isOptimized: false)
!739 = !DISubroutineType(types: !740)
!740 = !{!583, !309, !41, !41, !319, !41, !41}
!741 = !DISubprogram(name: "replace", linkageName: "_ZNSt3__112basic_stringIcNS_11char_traitsIcEENS_9allocatorIcEEE7replaceEmmPKcm", scope: !24, file: !25, line: 1086, type: !742, isLocal: false, isDefinition: false, scopeLine: 1086, flags: DIFlagPublic | DIFlagPrototyped, isOptimized: false)
!742 = !DISubroutineType(types: !743)
!743 = !{!583, !309, !41, !41, !593, !41}
!744 = !DISubprogram(name: "replace", linkageName: "_ZNSt3__112basic_stringIcNS_11char_traitsIcEENS_9allocatorIcEEE7replaceEmmPKc", scope: !24, file: !25, line: 1087, type: !745, isLocal: false, isDefinition: false, scopeLine: 1087, flags: DIFlagPublic | DIFlagPrototyped, isOptimized: false)
!745 = !DISubroutineType(types: !746)
!746 = !{!583, !309, !41, !41, !593}
!747 = !DISubprogram(name: "replace", linkageName: "_ZNSt3__112basic_stringIcNS_11char_traitsIcEENS_9allocatorIcEEE7replaceEmmmc", scope: !24, file: !25, line: 1088, type: !748, isLocal: false, isDefinition: false, scopeLine: 1088, flags: DIFlagPublic | DIFlagPrototyped, isOptimized: false)
!748 = !DISubroutineType(types: !749)
!749 = !{!583, !309, !41, !41, !41, !226}
!750 = !DISubprogram(name: "replace", linkageName: "_ZNSt3__112basic_stringIcNS_11char_traitsIcEENS_9allocatorIcEEE7replaceENS_11__wrap_iterIPKcEES9_RKS5_", scope: !24, file: !25, line: 1090, type: !751, isLocal: false, isDefinition: false, scopeLine: 1090, flags: DIFlagPublic | DIFlagPrototyped, isOptimized: false)
!751 = !DISubroutineType(types: !752)
!752 = !{!583, !309, !606, !606, !319}
!753 = !DISubprogram(name: "replace", linkageName: "_ZNSt3__112basic_stringIcNS_11char_traitsIcEENS_9allocatorIcEEE7replaceENS_11__wrap_iterIPKcEES9_NS_17basic_string_viewIcS2_EE", scope: !24, file: !25, line: 1092, type: !754, isLocal: false, isDefinition: false, scopeLine: 1092, flags: DIFlagPublic | DIFlagPrototyped, isOptimized: false)
!754 = !DISubroutineType(types: !755)
!755 = !{!583, !309, !606, !606, !358}
!756 = !DISubprogram(name: "replace", linkageName: "_ZNSt3__112basic_stringIcNS_11char_traitsIcEENS_9allocatorIcEEE7replaceENS_11__wrap_iterIPKcEES9_S8_m", scope: !24, file: !25, line: 1094, type: !757, isLocal: false, isDefinition: false, scopeLine: 1094, flags: DIFlagPublic | DIFlagPrototyped, isOptimized: false)
!757 = !DISubroutineType(types: !758)
!758 = !{!583, !309, !606, !606, !593, !41}
!759 = !DISubprogram(name: "replace", linkageName: "_ZNSt3__112basic_stringIcNS_11char_traitsIcEENS_9allocatorIcEEE7replaceENS_11__wrap_iterIPKcEES9_S8_", scope: !24, file: !25, line: 1096, type: !760, isLocal: false, isDefinition: false, scopeLine: 1096, flags: DIFlagPublic | DIFlagPrototyped, isOptimized: false)
!760 = !DISubroutineType(types: !761)
!761 = !{!583, !309, !606, !606, !593}
!762 = !DISubprogram(name: "replace", linkageName: "_ZNSt3__112basic_stringIcNS_11char_traitsIcEENS_9allocatorIcEEE7replaceENS_11__wrap_iterIPKcEES9_mc", scope: !24, file: !25, line: 1098, type: !763, isLocal: false, isDefinition: false, scopeLine: 1098, flags: DIFlagPublic | DIFlagPrototyped, isOptimized: false)
!763 = !DISubroutineType(types: !764)
!764 = !{!583, !309, !606, !606, !41, !226}
!765 = !DISubprogram(name: "replace", linkageName: "_ZNSt3__112basic_stringIcNS_11char_traitsIcEENS_9allocatorIcEEE7replaceENS_11__wrap_iterIPKcEES9_St16initializer_listIcE", scope: !24, file: !25, line: 1109, type: !766, isLocal: false, isDefinition: false, scopeLine: 1109, flags: DIFlagPublic | DIFlagPrototyped, isOptimized: false)
!766 = !DISubroutineType(types: !767)
!767 = !{!583, !309, !606, !606, !549}
!768 = !DISubprogram(name: "copy", linkageName: "_ZNKSt3__112basic_stringIcNS_11char_traitsIcEENS_9allocatorIcEEE4copyEPcmm", scope: !24, file: !25, line: 1113, type: !769, isLocal: false, isDefinition: false, scopeLine: 1113, flags: DIFlagPublic | DIFlagPrototyped, isOptimized: false)
!769 = !DISubroutineType(types: !770)
!770 = !{!41, !579, !771, !41, !41}
!771 = !DIDerivedType(tag: DW_TAG_pointer_type, baseType: !226, size: 64)
!772 = !DISubprogram(name: "substr", linkageName: "_ZNKSt3__112basic_stringIcNS_11char_traitsIcEENS_9allocatorIcEEE6substrEmm", scope: !24, file: !25, line: 1115, type: !773, isLocal: false, isDefinition: false, scopeLine: 1115, flags: DIFlagPublic | DIFlagPrototyped, isOptimized: false)
!773 = !DISubroutineType(types: !774)
!774 = !{!24, !579, !41, !41}
!775 = !DISubprogram(name: "swap", linkageName: "_ZNSt3__112basic_stringIcNS_11char_traitsIcEENS_9allocatorIcEEE4swapERS5_", scope: !24, file: !25, line: 1118, type: !776, isLocal: false, isDefinition: false, scopeLine: 1118, flags: DIFlagPublic | DIFlagPrototyped, isOptimized: false)
!776 = !DISubroutineType(types: !777)
!777 = !{null, !309, !583}
!778 = !DISubprogram(name: "c_str", linkageName: "_ZNKSt3__112basic_stringIcNS_11char_traitsIcEENS_9allocatorIcEEE5c_strEv", scope: !24, file: !25, line: 1127, type: !779, isLocal: false, isDefinition: false, scopeLine: 1127, flags: DIFlagPublic | DIFlagPrototyped, isOptimized: false)
!779 = !DISubroutineType(types: !780)
!780 = !{!593, !579}
!781 = !DISubprogram(name: "data", linkageName: "_ZNKSt3__112basic_stringIcNS_11char_traitsIcEENS_9allocatorIcEEE4dataEv", scope: !24, file: !25, line: 1129, type: !779, isLocal: false, isDefinition: false, scopeLine: 1129, flags: DIFlagPublic | DIFlagPrototyped, isOptimized: false)
!782 = !DISubprogram(name: "get_allocator", linkageName: "_ZNKSt3__112basic_stringIcNS_11char_traitsIcEENS_9allocatorIcEEE13get_allocatorEv", scope: !24, file: !25, line: 1136, type: !783, isLocal: false, isDefinition: false, scopeLine: 1136, flags: DIFlagPublic | DIFlagPrototyped, isOptimized: false)
!783 = !DISubroutineType(types: !784)
!784 = !{!315, !579}
!785 = !DISubprogram(name: "find", linkageName: "_ZNKSt3__112basic_stringIcNS_11char_traitsIcEENS_9allocatorIcEEE4findERKS5_m", scope: !24, file: !25, line: 1139, type: !786, isLocal: false, isDefinition: false, scopeLine: 1139, flags: DIFlagPublic | DIFlagPrototyped, isOptimized: false)
!786 = !DISubroutineType(types: !787)
!787 = !{!41, !579, !319, !41}
!788 = !DISubprogram(name: "find", linkageName: "_ZNKSt3__112basic_stringIcNS_11char_traitsIcEENS_9allocatorIcEEE4findENS_17basic_string_viewIcS2_EEm", scope: !24, file: !25, line: 1141, type: !789, isLocal: false, isDefinition: false, scopeLine: 1141, flags: DIFlagPublic | DIFlagPrototyped, isOptimized: false)
!789 = !DISubroutineType(types: !790)
!790 = !{!41, !579, !358, !41}
!791 = !DISubprogram(name: "find", linkageName: "_ZNKSt3__112basic_stringIcNS_11char_traitsIcEENS_9allocatorIcEEE4findEPKcmm", scope: !24, file: !25, line: 1142, type: !792, isLocal: false, isDefinition: false, scopeLine: 1142, flags: DIFlagPublic | DIFlagPrototyped, isOptimized: false)
!792 = !DISubroutineType(types: !793)
!793 = !{!41, !579, !593, !41, !41}
!794 = !DISubprogram(name: "find", linkageName: "_ZNKSt3__112basic_stringIcNS_11char_traitsIcEENS_9allocatorIcEEE4findEPKcm", scope: !24, file: !25, line: 1144, type: !795, isLocal: false, isDefinition: false, scopeLine: 1144, flags: DIFlagPublic | DIFlagPrototyped, isOptimized: false)
!795 = !DISubroutineType(types: !796)
!796 = !{!41, !579, !593, !41}
!797 = !DISubprogram(name: "find", linkageName: "_ZNKSt3__112basic_stringIcNS_11char_traitsIcEENS_9allocatorIcEEE4findEcm", scope: !24, file: !25, line: 1145, type: !798, isLocal: false, isDefinition: false, scopeLine: 1145, flags: DIFlagPublic | DIFlagPrototyped, isOptimized: false)
!798 = !DISubroutineType(types: !799)
!799 = !{!41, !579, !226, !41}
!800 = !DISubprogram(name: "rfind", linkageName: "_ZNKSt3__112basic_stringIcNS_11char_traitsIcEENS_9allocatorIcEEE5rfindERKS5_m", scope: !24, file: !25, line: 1148, type: !786, isLocal: false, isDefinition: false, scopeLine: 1148, flags: DIFlagPublic | DIFlagPrototyped, isOptimized: false)
!801 = !DISubprogram(name: "rfind", linkageName: "_ZNKSt3__112basic_stringIcNS_11char_traitsIcEENS_9allocatorIcEEE5rfindENS_17basic_string_viewIcS2_EEm", scope: !24, file: !25, line: 1150, type: !789, isLocal: false, isDefinition: false, scopeLine: 1150, flags: DIFlagPublic | DIFlagPrototyped, isOptimized: false)
!802 = !DISubprogram(name: "rfind", linkageName: "_ZNKSt3__112basic_stringIcNS_11char_traitsIcEENS_9allocatorIcEEE5rfindEPKcmm", scope: !24, file: !25, line: 1151, type: !792, isLocal: false, isDefinition: false, scopeLine: 1151, flags: DIFlagPublic | DIFlagPrototyped, isOptimized: false)
!803 = !DISubprogram(name: "rfind", linkageName: "_ZNKSt3__112basic_stringIcNS_11char_traitsIcEENS_9allocatorIcEEE5rfindEPKcm", scope: !24, file: !25, line: 1153, type: !795, isLocal: false, isDefinition: false, scopeLine: 1153, flags: DIFlagPublic | DIFlagPrototyped, isOptimized: false)
!804 = !DISubprogram(name: "rfind", linkageName: "_ZNKSt3__112basic_stringIcNS_11char_traitsIcEENS_9allocatorIcEEE5rfindEcm", scope: !24, file: !25, line: 1154, type: !798, isLocal: false, isDefinition: false, scopeLine: 1154, flags: DIFlagPublic | DIFlagPrototyped, isOptimized: false)
!805 = !DISubprogram(name: "find_first_of", linkageName: "_ZNKSt3__112basic_stringIcNS_11char_traitsIcEENS_9allocatorIcEEE13find_first_ofERKS5_m", scope: !24, file: !25, line: 1157, type: !786, isLocal: false, isDefinition: false, scopeLine: 1157, flags: DIFlagPublic | DIFlagPrototyped, isOptimized: false)
!806 = !DISubprogram(name: "find_first_of", linkageName: "_ZNKSt3__112basic_stringIcNS_11char_traitsIcEENS_9allocatorIcEEE13find_first_ofENS_17basic_string_viewIcS2_EEm", scope: !24, file: !25, line: 1159, type: !789, isLocal: false, isDefinition: false, scopeLine: 1159, flags: DIFlagPublic | DIFlagPrototyped, isOptimized: false)
!807 = !DISubprogram(name: "find_first_of", linkageName: "_ZNKSt3__112basic_stringIcNS_11char_traitsIcEENS_9allocatorIcEEE13find_first_ofEPKcmm", scope: !24, file: !25, line: 1160, type: !792, isLocal: false, isDefinition: false, scopeLine: 1160, flags: DIFlagPublic | DIFlagPrototyped, isOptimized: false)
!808 = !DISubprogram(name: "find_first_of", linkageName: "_ZNKSt3__112basic_stringIcNS_11char_traitsIcEENS_9allocatorIcEEE13find_first_ofEPKcm", scope: !24, file: !25, line: 1162, type: !795, isLocal: false, isDefinition: false, scopeLine: 1162, flags: DIFlagPublic | DIFlagPrototyped, isOptimized: false)
!809 = !DISubprogram(name: "find_first_of", linkageName: "_ZNKSt3__112basic_stringIcNS_11char_traitsIcEENS_9allocatorIcEEE13find_first_ofEcm", scope: !24, file: !25, line: 1164, type: !798, isLocal: false, isDefinition: false, scopeLine: 1164, flags: DIFlagPublic | DIFlagPrototyped, isOptimized: false)
!810 = !DISubprogram(name: "find_last_of", linkageName: "_ZNKSt3__112basic_stringIcNS_11char_traitsIcEENS_9allocatorIcEEE12find_last_ofERKS5_m", scope: !24, file: !25, line: 1167, type: !786, isLocal: false, isDefinition: false, scopeLine: 1167, flags: DIFlagPublic | DIFlagPrototyped, isOptimized: false)
!811 = !DISubprogram(name: "find_last_of", linkageName: "_ZNKSt3__112basic_stringIcNS_11char_traitsIcEENS_9allocatorIcEEE12find_last_ofENS_17basic_string_viewIcS2_EEm", scope: !24, file: !25, line: 1169, type: !789, isLocal: false, isDefinition: false, scopeLine: 1169, flags: DIFlagPublic | DIFlagPrototyped, isOptimized: false)
!812 = !DISubprogram(name: "find_last_of", linkageName: "_ZNKSt3__112basic_stringIcNS_11char_traitsIcEENS_9allocatorIcEEE12find_last_ofEPKcmm", scope: !24, file: !25, line: 1170, type: !792, isLocal: false, isDefinition: false, scopeLine: 1170, flags: DIFlagPublic | DIFlagPrototyped, isOptimized: false)
!813 = !DISubprogram(name: "find_last_of", linkageName: "_ZNKSt3__112basic_stringIcNS_11char_traitsIcEENS_9allocatorIcEEE12find_last_ofEPKcm", scope: !24, file: !25, line: 1172, type: !795, isLocal: false, isDefinition: false, scopeLine: 1172, flags: DIFlagPublic | DIFlagPrototyped, isOptimized: false)
!814 = !DISubprogram(name: "find_last_of", linkageName: "_ZNKSt3__112basic_stringIcNS_11char_traitsIcEENS_9allocatorIcEEE12find_last_ofEcm", scope: !24, file: !25, line: 1174, type: !798, isLocal: false, isDefinition: false, scopeLine: 1174, flags: DIFlagPublic | DIFlagPrototyped, isOptimized: false)
!815 = !DISubprogram(name: "find_first_not_of", linkageName: "_ZNKSt3__112basic_stringIcNS_11char_traitsIcEENS_9allocatorIcEEE17find_first_not_ofERKS5_m", scope: !24, file: !25, line: 1177, type: !786, isLocal: false, isDefinition: false, scopeLine: 1177, flags: DIFlagPublic | DIFlagPrototyped, isOptimized: false)
!816 = !DISubprogram(name: "find_first_not_of", linkageName: "_ZNKSt3__112basic_stringIcNS_11char_traitsIcEENS_9allocatorIcEEE17find_first_not_ofENS_17basic_string_viewIcS2_EEm", scope: !24, file: !25, line: 1179, type: !789, isLocal: false, isDefinition: false, scopeLine: 1179, flags: DIFlagPublic | DIFlagPrototyped, isOptimized: false)
!817 = !DISubprogram(name: "find_first_not_of", linkageName: "_ZNKSt3__112basic_stringIcNS_11char_traitsIcEENS_9allocatorIcEEE17find_first_not_ofEPKcmm", scope: !24, file: !25, line: 1180, type: !792, isLocal: false, isDefinition: false, scopeLine: 1180, flags: DIFlagPublic | DIFlagPrototyped, isOptimized: false)
!818 = !DISubprogram(name: "find_first_not_of", linkageName: "_ZNKSt3__112basic_stringIcNS_11char_traitsIcEENS_9allocatorIcEEE17find_first_not_ofEPKcm", scope: !24, file: !25, line: 1182, type: !795, isLocal: false, isDefinition: false, scopeLine: 1182, flags: DIFlagPublic | DIFlagPrototyped, isOptimized: false)
!819 = !DISubprogram(name: "find_first_not_of", linkageName: "_ZNKSt3__112basic_stringIcNS_11char_traitsIcEENS_9allocatorIcEEE17find_first_not_ofEcm", scope: !24, file: !25, line: 1184, type: !798, isLocal: false, isDefinition: false, scopeLine: 1184, flags: DIFlagPublic | DIFlagPrototyped, isOptimized: false)
!820 = !DISubprogram(name: "find_last_not_of", linkageName: "_ZNKSt3__112basic_stringIcNS_11char_traitsIcEENS_9allocatorIcEEE16find_last_not_ofERKS5_m", scope: !24, file: !25, line: 1187, type: !786, isLocal: false, isDefinition: false, scopeLine: 1187, flags: DIFlagPublic | DIFlagPrototyped, isOptimized: false)
!821 = !DISubprogram(name: "find_last_not_of", linkageName: "_ZNKSt3__112basic_stringIcNS_11char_traitsIcEENS_9allocatorIcEEE16find_last_not_ofENS_17basic_string_viewIcS2_EEm", scope: !24, file: !25, line: 1189, type: !789, isLocal: false, isDefinition: false, scopeLine: 1189, flags: DIFlagPublic | DIFlagPrototyped, isOptimized: false)
!822 = !DISubprogram(name: "find_last_not_of", linkageName: "_ZNKSt3__112basic_stringIcNS_11char_traitsIcEENS_9allocatorIcEEE16find_last_not_ofEPKcmm", scope: !24, file: !25, line: 1190, type: !792, isLocal: false, isDefinition: false, scopeLine: 1190, flags: DIFlagPublic | DIFlagPrototyped, isOptimized: false)
!823 = !DISubprogram(name: "find_last_not_of", linkageName: "_ZNKSt3__112basic_stringIcNS_11char_traitsIcEENS_9allocatorIcEEE16find_last_not_ofEPKcm", scope: !24, file: !25, line: 1192, type: !795, isLocal: false, isDefinition: false, scopeLine: 1192, flags: DIFlagPublic | DIFlagPrototyped, isOptimized: false)
!824 = !DISubprogram(name: "find_last_not_of", linkageName: "_ZNKSt3__112basic_stringIcNS_11char_traitsIcEENS_9allocatorIcEEE16find_last_not_ofEcm", scope: !24, file: !25, line: 1194, type: !798, isLocal: false, isDefinition: false, scopeLine: 1194, flags: DIFlagPublic | DIFlagPrototyped, isOptimized: false)
!825 = !DISubprogram(name: "compare", linkageName: "_ZNKSt3__112basic_stringIcNS_11char_traitsIcEENS_9allocatorIcEEE7compareERKS5_", scope: !24, file: !25, line: 1197, type: !826, isLocal: false, isDefinition: false, scopeLine: 1197, flags: DIFlagPublic | DIFlagPrototyped, isOptimized: false)
!826 = !DISubroutineType(types: !827)
!827 = !{!14, !579, !319}
!828 = !DISubprogram(name: "compare", linkageName: "_ZNKSt3__112basic_stringIcNS_11char_traitsIcEENS_9allocatorIcEEE7compareENS_17basic_string_viewIcS2_EE", scope: !24, file: !25, line: 1199, type: !829, isLocal: false, isDefinition: false, scopeLine: 1199, flags: DIFlagPublic | DIFlagPrototyped, isOptimized: false)
!829 = !DISubroutineType(types: !830)
!830 = !{!14, !579, !358}
!831 = !DISubprogram(name: "compare", linkageName: "_ZNKSt3__112basic_stringIcNS_11char_traitsIcEENS_9allocatorIcEEE7compareEmmNS_17basic_string_viewIcS2_EE", scope: !24, file: !25, line: 1201, type: !832, isLocal: false, isDefinition: false, scopeLine: 1201, flags: DIFlagPublic | DIFlagPrototyped, isOptimized: false)
!832 = !DISubroutineType(types: !833)
!833 = !{!14, !579, !41, !41, !358}
!834 = !DISubprogram(name: "compare", linkageName: "_ZNKSt3__112basic_stringIcNS_11char_traitsIcEENS_9allocatorIcEEE7compareEmmRKS5_", scope: !24, file: !25, line: 1203, type: !835, isLocal: false, isDefinition: false, scopeLine: 1203, flags: DIFlagPublic | DIFlagPrototyped, isOptimized: false)
!835 = !DISubroutineType(types: !836)
!836 = !{!14, !579, !41, !41, !319}
!837 = !DISubprogram(name: "compare", linkageName: "_ZNKSt3__112basic_stringIcNS_11char_traitsIcEENS_9allocatorIcEEE7compareEmmRKS5_mm", scope: !24, file: !25, line: 1204, type: !838, isLocal: false, isDefinition: false, scopeLine: 1204, flags: DIFlagPublic | DIFlagPrototyped, isOptimized: false)
!838 = !DISubroutineType(types: !839)
!839 = !{!14, !579, !41, !41, !319, !41, !41}
!840 = !DISubprogram(name: "compare", linkageName: "_ZNKSt3__112basic_stringIcNS_11char_traitsIcEENS_9allocatorIcEEE7compareEPKc", scope: !24, file: !25, line: 1213, type: !841, isLocal: false, isDefinition: false, scopeLine: 1213, flags: DIFlagPublic | DIFlagPrototyped, isOptimized: false)
!841 = !DISubroutineType(types: !842)
!842 = !{!14, !579, !593}
!843 = !DISubprogram(name: "compare", linkageName: "_ZNKSt3__112basic_stringIcNS_11char_traitsIcEENS_9allocatorIcEEE7compareEmmPKc", scope: !24, file: !25, line: 1214, type: !844, isLocal: false, isDefinition: false, scopeLine: 1214, flags: DIFlagPublic | DIFlagPrototyped, isOptimized: false)
!844 = !DISubroutineType(types: !845)
!845 = !{!14, !579, !41, !41, !593}
!846 = !DISubprogram(name: "compare", linkageName: "_ZNKSt3__112basic_stringIcNS_11char_traitsIcEENS_9allocatorIcEEE7compareEmmPKcm", scope: !24, file: !25, line: 1215, type: !847, isLocal: false, isDefinition: false, scopeLine: 1215, flags: DIFlagPublic | DIFlagPrototyped, isOptimized: false)
!847 = !DISubroutineType(types: !848)
!848 = !{!14, !579, !41, !41, !593, !41}
!849 = !DISubprogram(name: "__invariants", linkageName: "_ZNKSt3__112basic_stringIcNS_11char_traitsIcEENS_9allocatorIcEEE12__invariantsEv", scope: !24, file: !25, line: 1217, type: !642, isLocal: false, isDefinition: false, scopeLine: 1217, flags: DIFlagPublic | DIFlagPrototyped, isOptimized: false)
!850 = !DISubprogram(name: "__is_long", linkageName: "_ZNKSt3__112basic_stringIcNS_11char_traitsIcEENS_9allocatorIcEEE9__is_longEv", scope: !24, file: !25, line: 1220, type: !642, isLocal: false, isDefinition: false, scopeLine: 1220, flags: DIFlagPublic | DIFlagPrototyped, isOptimized: false)
!851 = !DISubprogram(name: "__alloc", linkageName: "_ZNSt3__112basic_stringIcNS_11char_traitsIcEENS_9allocatorIcEEE7__allocEv", scope: !24, file: !25, line: 1234, type: !852, isLocal: false, isDefinition: false, scopeLine: 1234, flags: DIFlagPrototyped, isOptimized: false)
!852 = !DISubroutineType(types: !853)
!853 = !{!854, !309}
!854 = !DIDerivedType(tag: DW_TAG_reference_type, baseType: !315, size: 64)
!855 = !DISubprogram(name: "__alloc", linkageName: "_ZNKSt3__112basic_stringIcNS_11char_traitsIcEENS_9allocatorIcEEE7__allocEv", scope: !24, file: !25, line: 1237, type: !856, isLocal: false, isDefinition: false, scopeLine: 1237, flags: DIFlagPrototyped, isOptimized: false)
!856 = !DISubroutineType(types: !857)
!857 = !{!313, !579}
!858 = !DISubprogram(name: "__set_short_size", linkageName: "_ZNSt3__112basic_stringIcNS_11char_traitsIcEENS_9allocatorIcEEE16__set_short_sizeEm", scope: !24, file: !25, line: 1261, type: !636, isLocal: false, isDefinition: false, scopeLine: 1261, flags: DIFlagPrototyped, isOptimized: false)
!859 = !DISubprogram(name: "__get_short_size", linkageName: "_ZNKSt3__112basic_stringIcNS_11char_traitsIcEENS_9allocatorIcEEE16__get_short_sizeEv", scope: !24, file: !25, line: 1269, type: !627, isLocal: false, isDefinition: false, scopeLine: 1269, flags: DIFlagPrototyped, isOptimized: false)
!860 = !DISubprogram(name: "__set_long_size", linkageName: "_ZNSt3__112basic_stringIcNS_11char_traitsIcEENS_9allocatorIcEEE15__set_long_sizeEm", scope: !24, file: !25, line: 1279, type: !636, isLocal: false, isDefinition: false, scopeLine: 1279, flags: DIFlagPrototyped, isOptimized: false)
!861 = !DISubprogram(name: "__get_long_size", linkageName: "_ZNKSt3__112basic_stringIcNS_11char_traitsIcEENS_9allocatorIcEEE15__get_long_sizeEv", scope: !24, file: !25, line: 1282, type: !627, isLocal: false, isDefinition: false, scopeLine: 1282, flags: DIFlagPrototyped, isOptimized: false)
!862 = !DISubprogram(name: "__set_size", linkageName: "_ZNSt3__112basic_stringIcNS_11char_traitsIcEENS_9allocatorIcEEE10__set_sizeEm", scope: !24, file: !25, line: 1285, type: !636, isLocal: false, isDefinition: false, scopeLine: 1285, flags: DIFlagPrototyped, isOptimized: false)
!863 = !DISubprogram(name: "__set_long_cap", linkageName: "_ZNSt3__112basic_stringIcNS_11char_traitsIcEENS_9allocatorIcEEE14__set_long_capEm", scope: !24, file: !25, line: 1289, type: !636, isLocal: false, isDefinition: false, scopeLine: 1289, flags: DIFlagPrototyped, isOptimized: false)
!864 = !DISubprogram(name: "__get_long_cap", linkageName: "_ZNKSt3__112basic_stringIcNS_11char_traitsIcEENS_9allocatorIcEEE14__get_long_capEv", scope: !24, file: !25, line: 1292, type: !627, isLocal: false, isDefinition: false, scopeLine: 1292, flags: DIFlagPrototyped, isOptimized: false)
!865 = !DISubprogram(name: "__set_long_pointer", linkageName: "_ZNSt3__112basic_stringIcNS_11char_traitsIcEENS_9allocatorIcEEE18__set_long_pointerEPc", scope: !24, file: !25, line: 1296, type: !866, isLocal: false, isDefinition: false, scopeLine: 1296, flags: DIFlagPrototyped, isOptimized: false)
!866 = !DISubroutineType(types: !867)
!867 = !{null, !309, !216}
!868 = !DISubprogram(name: "__get_long_pointer", linkageName: "_ZNSt3__112basic_stringIcNS_11char_traitsIcEENS_9allocatorIcEEE18__get_long_pointerEv", scope: !24, file: !25, line: 1299, type: !869, isLocal: false, isDefinition: false, scopeLine: 1299, flags: DIFlagPrototyped, isOptimized: false)
!869 = !DISubroutineType(types: !870)
!870 = !{!216, !309}
!871 = !DISubprogram(name: "__get_long_pointer", linkageName: "_ZNKSt3__112basic_stringIcNS_11char_traitsIcEENS_9allocatorIcEEE18__get_long_pointerEv", scope: !24, file: !25, line: 1302, type: !872, isLocal: false, isDefinition: false, scopeLine: 1302, flags: DIFlagPrototyped, isOptimized: false)
!872 = !DISubroutineType(types: !873)
!873 = !{!874, !579}
!874 = !DIDerivedType(tag: DW_TAG_typedef, name: "const_pointer", scope: !24, file: !25, line: 645, baseType: !875)
!875 = !DIDerivedType(tag: DW_TAG_typedef, name: "const_pointer", scope: !44, file: !43, line: 1473, baseType: !876)
!876 = !DIDerivedType(tag: DW_TAG_typedef, name: "type", scope: !877, file: !43, line: 1033, baseType: !74)
!877 = distinct !DICompositeType(tag: DW_TAG_structure_type, name: "__const_pointer<char, char *, std::__1::allocator<char>, true>", scope: !22, file: !43, line: 1031, size: 8, elements: !52, templateParams: !878, identifier: "_ZTSNSt3__115__const_pointerIcPcNS_9allocatorIcEELb1EEE")
!878 = !{!54, !115, !116, !37}
!879 = !DISubprogram(name: "__get_short_pointer", linkageName: "_ZNSt3__112basic_stringIcNS_11char_traitsIcEENS_9allocatorIcEEE19__get_short_pointerEv", scope: !24, file: !25, line: 1305, type: !869, isLocal: false, isDefinition: false, scopeLine: 1305, flags: DIFlagPrototyped, isOptimized: false)
!880 = !DISubprogram(name: "__get_short_pointer", linkageName: "_ZNKSt3__112basic_stringIcNS_11char_traitsIcEENS_9allocatorIcEEE19__get_short_pointerEv", scope: !24, file: !25, line: 1308, type: !872, isLocal: false, isDefinition: false, scopeLine: 1308, flags: DIFlagPrototyped, isOptimized: false)
!881 = !DISubprogram(name: "__get_pointer", linkageName: "_ZNSt3__112basic_stringIcNS_11char_traitsIcEENS_9allocatorIcEEE13__get_pointerEv", scope: !24, file: !25, line: 1311, type: !869, isLocal: false, isDefinition: false, scopeLine: 1311, flags: DIFlagPrototyped, isOptimized: false)
!882 = !DISubprogram(name: "__get_pointer", linkageName: "_ZNKSt3__112basic_stringIcNS_11char_traitsIcEENS_9allocatorIcEEE13__get_pointerEv", scope: !24, file: !25, line: 1314, type: !872, isLocal: false, isDefinition: false, scopeLine: 1314, flags: DIFlagPrototyped, isOptimized: false)
!883 = !DISubprogram(name: "__zero", linkageName: "_ZNSt3__112basic_stringIcNS_11char_traitsIcEENS_9allocatorIcEEE6__zeroEv", scope: !24, file: !25, line: 1318, type: !307, isLocal: false, isDefinition: false, scopeLine: 1318, flags: DIFlagPrototyped, isOptimized: false)
!884 = !DISubprogram(name: "__recommend", linkageName: "_ZNSt3__112basic_stringIcNS_11char_traitsIcEENS_9allocatorIcEEE11__recommendEm", scope: !24, file: !25, line: 1331, type: !885, isLocal: false, isDefinition: false, scopeLine: 1331, flags: DIFlagPrototyped, isOptimized: false)
!885 = !DISubroutineType(types: !886)
!886 = !{!41, !41}
!887 = !DISubprogram(name: "__init", linkageName: "_ZNSt3__112basic_stringIcNS_11char_traitsIcEENS_9allocatorIcEEE6__initEPKcmm", scope: !24, file: !25, line: 1337, type: !888, isLocal: false, isDefinition: false, scopeLine: 1337, flags: DIFlagPrototyped, isOptimized: false)
!888 = !DISubroutineType(types: !889)
!889 = !{null, !309, !593, !41, !41}
!890 = !DISubprogram(name: "__init", linkageName: "_ZNSt3__112basic_stringIcNS_11char_traitsIcEENS_9allocatorIcEEE6__initEPKcm", scope: !24, file: !25, line: 1339, type: !891, isLocal: false, isDefinition: false, scopeLine: 1339, flags: DIFlagPrototyped, isOptimized: false)
!891 = !DISubroutineType(types: !892)
!892 = !{null, !309, !593, !41}
!893 = !DISubprogram(name: "__init", linkageName: "_ZNSt3__112basic_stringIcNS_11char_traitsIcEENS_9allocatorIcEEE6__initEmc", scope: !24, file: !25, line: 1341, type: !633, isLocal: false, isDefinition: false, scopeLine: 1341, flags: DIFlagPrototyped, isOptimized: false)
!894 = !DISubprogram(name: "__grow_by", linkageName: "_ZNSt3__112basic_stringIcNS_11char_traitsIcEENS_9allocatorIcEEE9__grow_byEmmmmmm", scope: !24, file: !25, line: 1361, type: !895, isLocal: false, isDefinition: false, scopeLine: 1361, flags: DIFlagPrototyped, isOptimized: false)
!895 = !DISubroutineType(types: !896)
!896 = !{null, !309, !41, !41, !41, !41, !41, !41}
!897 = !DISubprogram(name: "__grow_by_and_replace", linkageName: "_ZNSt3__112basic_stringIcNS_11char_traitsIcEENS_9allocatorIcEEE21__grow_by_and_replaceEmmmmmmPKc", scope: !24, file: !25, line: 1363, type: !898, isLocal: false, isDefinition: false, scopeLine: 1363, flags: DIFlagPrototyped, isOptimized: false)
!898 = !DISubroutineType(types: !899)
!899 = !{null, !309, !41, !41, !41, !41, !41, !41, !593}
!900 = !DISubprogram(name: "__erase_to_end", linkageName: "_ZNSt3__112basic_stringIcNS_11char_traitsIcEENS_9allocatorIcEEE14__erase_to_endEm", scope: !24, file: !25, line: 1368, type: !636, isLocal: false, isDefinition: false, scopeLine: 1368, flags: DIFlagPrototyped, isOptimized: false)
!901 = !DISubprogram(name: "__copy_assign_alloc", linkageName: "_ZNSt3__112basic_stringIcNS_11char_traitsIcEENS_9allocatorIcEEE19__copy_assign_allocERKS5_", scope: !24, file: !25, line: 1371, type: !317, isLocal: false, isDefinition: false, scopeLine: 1371, flags: DIFlagPrototyped, isOptimized: false)
!902 = !DISubprogram(name: "__copy_assign_alloc", linkageName: "_ZNSt3__112basic_stringIcNS_11char_traitsIcEENS_9allocatorIcEEE19__copy_assign_allocERKS5_NS_17integral_constantIbLb1EEE", scope: !24, file: !25, line: 1376, type: !903, isLocal: false, isDefinition: false, scopeLine: 1376, flags: DIFlagPrototyped, isOptimized: false)
!903 = !DISubroutineType(types: !904)
!904 = !{null, !309, !319, !149}
!905 = !DISubprogram(name: "__copy_assign_alloc", linkageName: "_ZNSt3__112basic_stringIcNS_11char_traitsIcEENS_9allocatorIcEEE19__copy_assign_allocERKS5_NS_17integral_constantIbLb0EEE", scope: !24, file: !25, line: 1403, type: !906, isLocal: false, isDefinition: false, scopeLine: 1403, flags: DIFlagPrototyped, isOptimized: false)
!906 = !DISubroutineType(types: !907)
!907 = !{null, !309, !319, !166}
!908 = !DISubprogram(name: "__move_assign", linkageName: "_ZNSt3__112basic_stringIcNS_11char_traitsIcEENS_9allocatorIcEEE13__move_assignERS5_NS_17integral_constantIbLb0EEE", scope: !24, file: !25, line: 1408, type: !909, isLocal: false, isDefinition: false, scopeLine: 1408, flags: DIFlagPrototyped, isOptimized: false)
!909 = !DISubroutineType(types: !910)
!910 = !{null, !309, !583, !166}
!911 = !DISubprogram(name: "__move_assign", linkageName: "_ZNSt3__112basic_stringIcNS_11char_traitsIcEENS_9allocatorIcEEE13__move_assignERS5_NS_17integral_constantIbLb1EEE", scope: !24, file: !25, line: 1411, type: !912, isLocal: false, isDefinition: false, scopeLine: 1411, flags: DIFlagPrototyped, isOptimized: false)
!912 = !DISubroutineType(types: !913)
!913 = !{null, !309, !583, !149}
!914 = !DISubprogram(name: "__move_assign_alloc", linkageName: "_ZNSt3__112basic_stringIcNS_11char_traitsIcEENS_9allocatorIcEEE19__move_assign_allocERS5_", scope: !24, file: !25, line: 1421, type: !776, isLocal: false, isDefinition: false, scopeLine: 1421, flags: DIFlagPrototyped, isOptimized: false)
!915 = !DISubprogram(name: "__move_assign_alloc", linkageName: "_ZNSt3__112basic_stringIcNS_11char_traitsIcEENS_9allocatorIcEEE19__move_assign_allocERS5_NS_17integral_constantIbLb1EEE", scope: !24, file: !25, line: 1429, type: !912, isLocal: false, isDefinition: false, scopeLine: 1429, flags: DIFlagPrototyped, isOptimized: false)
!916 = !DISubprogram(name: "__move_assign_alloc", linkageName: "_ZNSt3__112basic_stringIcNS_11char_traitsIcEENS_9allocatorIcEEE19__move_assign_allocERS5_NS_17integral_constantIbLb0EEE", scope: !24, file: !25, line: 1436, type: !909, isLocal: false, isDefinition: false, scopeLine: 1436, flags: DIFlagPrototyped, isOptimized: false)
!917 = !DISubprogram(name: "__invalidate_all_iterators", linkageName: "_ZNSt3__112basic_stringIcNS_11char_traitsIcEENS_9allocatorIcEEE26__invalidate_all_iteratorsEv", scope: !24, file: !25, line: 1440, type: !307, isLocal: false, isDefinition: false, scopeLine: 1440, flags: DIFlagPrototyped, isOptimized: false)
!918 = !DISubprogram(name: "__invalidate_iterators_past", linkageName: "_ZNSt3__112basic_stringIcNS_11char_traitsIcEENS_9allocatorIcEEE27__invalidate_iterators_pastEm", scope: !24, file: !25, line: 1441, type: !636, isLocal: false, isDefinition: false, scopeLine: 1441, flags: DIFlagPrototyped, isOptimized: false)
!919 = !{!492, !493, !920}
!920 = !DITemplateTypeParameter(name: "_Allocator", type: !56)
!921 = !DIDerivedType(tag: DW_TAG_member, name: "utf8_buf_", scope: !5, file: !4, line: 80, baseType: !16, size: 64, offset: 320, flags: DIFlagProtected)
!922 = !DIDerivedType(tag: DW_TAG_member, name: "is_strict_mode_", scope: !5, file: !4, line: 81, baseType: !38, size: 8, offset: 384, flags: DIFlagProtected)
!923 = !DIDerivedType(tag: DW_TAG_member, name: "source_type_", scope: !5, file: !4, line: 82, baseType: !3, size: 32, offset: 416, flags: DIFlagProtected)
!924 = !DIDerivedType(tag: DW_TAG_member, name: "is_scanning_", scope: !5, file: !4, line: 85, baseType: !38, size: 8, offset: 448, flags: DIFlagProtected)
!925 = !DIDerivedType(tag: DW_TAG_member, name: "has_linebreak_", scope: !5, file: !4, line: 86, baseType: !38, size: 8, offset: 456, flags: DIFlagProtected)
!926 = !DIDerivedType(tag: DW_TAG_member, name: "cur_len_", scope: !5, file: !4, line: 87, baseType: !14, size: 32, offset: 480, flags: DIFlagProtected)
!927 = !DIDerivedType(tag: DW_TAG_member, name: "cur_len_saved_", scope: !5, file: !4, line: 88, baseType: !14, size: 32, offset: 512, flags: DIFlagProtected)
!928 = !DIDerivedType(tag: DW_TAG_member, name: "state_", scope: !5, file: !4, line: 89, baseType: !929, size: 576, offset: 576, flags: DIFlagProtected)
!929 = distinct !DICompositeType(tag: DW_TAG_class_type, name: "ACLexState", scope: !6, file: !930, line: 20, size: 576, elements: !931, vtableHolder: !929, identifier: "_ZTSN14altered_carbon2js10ACLexStateE")
!930 = !DIFile(filename: "../ac_lex_state.h", directory: "/Users/ejiang/Projects/lls/ac/llfiles")
!931 = !{!932, !933, !934, !941, !942, !943, !4695, !5163, !5167, !5168, !5171, !5172, !5175, !5176, !5177, !5182, !5183, !5184}
!932 = !DIDerivedType(tag: DW_TAG_member, name: "_vptr$ACLexState", scope: !930, file: !930, baseType: !10, size: 64, flags: DIFlagArtificial)
!933 = !DIDerivedType(tag: DW_TAG_member, name: "last_comment_start_", scope: !929, file: !930, line: 22, baseType: !14, size: 32, offset: 64, flags: DIFlagPublic)
!934 = !DIDerivedType(tag: DW_TAG_member, name: "block_state_", scope: !929, file: !930, line: 23, baseType: !935, size: 24, offset: 96, flags: DIFlagPublic)
!935 = !DIDerivedType(tag: DW_TAG_typedef, name: "BlockLevelState", scope: !6, file: !930, line: 18, baseType: !936)
!936 = distinct !DICompositeType(tag: DW_TAG_structure_type, name: "BlockLevelState", scope: !6, file: !930, line: 14, size: 24, elements: !937, identifier: "_ZTSN14altered_carbon2js15BlockLevelStateE")
!937 = !{!938, !939, !940}
!938 = !DIDerivedType(tag: DW_TAG_member, name: "in_switch_", scope: !936, file: !930, line: 15, baseType: !38, size: 8)
!939 = !DIDerivedType(tag: DW_TAG_member, name: "in_iteration_", scope: !936, file: !930, line: 16, baseType: !38, size: 8, offset: 8)
!940 = !DIDerivedType(tag: DW_TAG_member, name: "in_function_body_", scope: !936, file: !930, line: 17, baseType: !38, size: 8, offset: 16)
!941 = !DIDerivedType(tag: DW_TAG_member, name: "allow_in_op_", scope: !929, file: !930, line: 38, baseType: !38, size: 8, offset: 120)
!942 = !DIDerivedType(tag: DW_TAG_member, name: "saved_allow_in_op_", scope: !929, file: !930, line: 39, baseType: !38, size: 8, offset: 128)
!943 = !DIDerivedType(tag: DW_TAG_member, name: "labels_", scope: !929, file: !930, line: 40, baseType: !944, size: 192, offset: 192)
!944 = distinct !DICompositeType(tag: DW_TAG_class_type, name: "map<std::__1::basic_string<wchar_t>, altered_carbon::js::ACAstBaseNode *, std::__1::less<std::__1::basic_string<wchar_t> >, std::__1::allocator<std::__1::pair<const std::__1::basic_string<wchar_t>, altered_carbon::js::ACAstBaseNode *> > >", scope: !22, file: !945, line: 805, size: 192, elements: !946, templateParams: !4693, identifier: "_ZTSNSt3__13mapINS_12basic_stringIwNS_11char_traitsIwEENS_9allocatorIwEEEEPN14altered_carbon2js13ACAstBaseNodeENS_4lessIS6_EENS4_INS_4pairIKS6_SA_EEEEEE")
!945 = !DIFile(filename: "/Applications/Xcode.app/Contents/Developer/Toolchains/XcodeDefault.xctoolchain/usr/include/c++/v1/map", directory: "/Users/ejiang/Projects/lls/ac/llfiles")
!946 = !{!947, !4412, !4416, !4422, !4462, !4467, !4471, !4475, !4478, !4481, !4485, !4488, !4491, !4494, !4497, !4502, !4508, !4509, !4510, !4515, !4520, !4521, !4522, !4523, !4524, !4525, !4526, !4529, !4607, !4608, !4616, !4620, !4621, !4626, !4629, !4632, !4636, !4643, !4646, !4650, !4653, !4656, !4659, !4662, !4665, !4668, !4669, !4672, !4675, !4678, !4681, !4682, !4683, !4684, !4685, !4689}
!947 = !DIDerivedType(tag: DW_TAG_member, name: "__tree_", scope: !944, file: !945, line: 845, baseType: !948, size: 192)
!948 = !DIDerivedType(tag: DW_TAG_typedef, name: "__base", scope: !944, file: !945, line: 841, baseType: !949)
!949 = distinct !DICompositeType(tag: DW_TAG_class_type, name: "__tree<std::__1::__value_type<std::__1::basic_string<wchar_t>, altered_carbon::js::ACAstBaseNode *>, std::__1::__map_value_compare<std::__1::basic_string<wchar_t>, std::__1::__value_type<std::__1::basic_string<wchar_t>, altered_carbon::js::ACAstBaseNode *>, std::__1::less<std::__1::basic_string<wchar_t> >, true>, std::__1::allocator<std::__1::__value_type<std::__1::basic_string<wchar_t>, altered_carbon::js::ACAstBaseNode *> > >", scope: !22, file: !950, line: 986, size: 192, elements: !951, templateParams: !4409, identifier: "_ZTSNSt3__16__treeINS_12__value_typeINS_12basic_stringIwNS_11char_traitsIwEENS_9allocatorIwEEEEPN14altered_carbon2js13ACAstBaseNodeEEENS_19__map_value_compareIS7_SC_NS_4lessIS7_EELb1EEENS5_ISC_EEEE")
!950 = !DIFile(filename: "/Applications/Xcode.app/Contents/Developer/Toolchains/XcodeDefault.xctoolchain/usr/include/c++/v1/__tree", directory: "/Users/ejiang/Projects/lls/ac/llfiles")
!951 = !{!952, !3873, !3976, !4094, !4098, !4103, !4227, !4232, !4236, !4241, !4245, !4250, !4255, !4260, !4265, !4270, !4275, !4278, !4283, !4286, !4290, !4294, !4298, !4301, !4304, !4307, !4312, !4317, !4318, !4319, !4322, !4323, !4326, !4333, !4336, !4340, !4343, !4346, !4347, !4350, !4353, !4356, !4357, !4360, !4363, !4368, !4373, !4380, !4381, !4384, !4387, !4388, !4391, !4394, !4397, !4400, !4401, !4402, !4403, !4406}
!952 = !DIDerivedType(tag: DW_TAG_member, name: "__begin_node_", scope: !949, file: !950, line: 1039, baseType: !953, size: 64)
!953 = !DIDerivedType(tag: DW_TAG_typedef, name: "__iter_pointer", scope: !949, file: !950, line: 1021, baseType: !954)
!954 = !DIDerivedType(tag: DW_TAG_typedef, name: "__iter_pointer", scope: !955, file: !950, line: 698, baseType: !3869)
!955 = distinct !DICompositeType(tag: DW_TAG_structure_type, name: "__tree_node_types<std::__1::__tree_node<std::__1::__value_type<std::__1::basic_string<wchar_t>, altered_carbon::js::ACAstBaseNode *>, void *> *, std::__1::__tree_node<std::__1::__value_type<std::__1::basic_string<wchar_t>, altered_carbon::js::ACAstBaseNode *>, void *> >", scope: !22, file: !950, line: 674, size: 8, elements: !956, templateParams: !3777, identifier: "_ZTSNSt3__117__tree_node_typesIPNS_11__tree_nodeINS_12__value_typeINS_12basic_stringIwNS_11char_traitsIwEENS_9allocatorIwEEEEPN14altered_carbon2js13ACAstBaseNodeEEEPvEESF_EE")
!956 = !{!957, !962, !3772}
!957 = !DIDerivedType(tag: DW_TAG_inheritance, scope: !955, baseType: !958)
!958 = distinct !DICompositeType(tag: DW_TAG_structure_type, name: "__tree_node_base_types<void *>", scope: !22, file: !950, line: 633, size: 8, elements: !52, templateParams: !959, identifier: "_ZTSNSt3__122__tree_node_base_typesIPvEE")
!959 = !{!960}
!960 = !DITemplateTypeParameter(name: "_VoidPtr", type: !961)
!961 = !DIDerivedType(tag: DW_TAG_pointer_type, baseType: null, size: 64)
!962 = !DIDerivedType(tag: DW_TAG_inheritance, scope: !955, baseType: !963)
!963 = distinct !DICompositeType(tag: DW_TAG_structure_type, name: "__tree_key_value_types<std::__1::__value_type<std::__1::basic_string<wchar_t>, altered_carbon::js::ACAstBaseNode *> >", scope: !22, file: !950, line: 582, size: 8, elements: !964, templateParams: !3770, identifier: "_ZTSNSt3__122__tree_key_value_typesINS_12__value_typeINS_12basic_stringIwNS_11char_traitsIwEENS_9allocatorIwEEEEPN14altered_carbon2js13ACAstBaseNodeEEEEE")
!964 = !{!965, !966, !3754, !3760, !3765}
!965 = !DIDerivedType(tag: DW_TAG_member, name: "__is_map", scope: !963, file: !950, line: 589, baseType: !153, flags: DIFlagStaticMember, extraData: i1 true)
!966 = !DISubprogram(name: "__get_key", linkageName: "_ZNSt3__122__tree_key_value_typesINS_12__value_typeINS_12basic_stringIwNS_11char_traitsIwEENS_9allocatorIwEEEEPN14altered_carbon2js13ACAstBaseNodeEEEE9__get_keyERKSC_", scope: !963, file: !950, line: 593, type: !967, isLocal: false, isDefinition: false, scopeLine: 593, flags: DIFlagPrototyped, isOptimized: false)
!967 = !DISubroutineType(types: !968)
!968 = !{!969, !1804}
!969 = !DIDerivedType(tag: DW_TAG_reference_type, baseType: !970, size: 64)
!970 = !DIDerivedType(tag: DW_TAG_const_type, baseType: !971)
!971 = !DIDerivedType(tag: DW_TAG_typedef, name: "key_type", scope: !963, file: !950, line: 583, baseType: !972)
!972 = distinct !DICompositeType(tag: DW_TAG_class_type, name: "basic_string<wchar_t, std::__1::char_traits<wchar_t>, std::__1::allocator<wchar_t> >", scope: !22, file: !25, line: 4003, size: 192, elements: !973, templateParams: !1802, identifier: "_ZTSNSt3__112basic_stringIwNS_11char_traitsIwEENS_9allocatorIwEEEE")
!973 = !{!974, !975, !1090, !1091, !1191, !1192, !1196, !1202, !1207, !1210, !1214, !1217, !1220, !1223, !1226, !1229, !1232, !1235, !1238, !1241, !1427, !1430, !1455, !1458, !1459, !1463, !1467, !1470, !1473, !1478, !1481, !1486, !1491, !1492, !1493, !1498, !1503, !1504, !1505, !1506, !1507, !1508, !1509, !1512, !1513, !1514, !1515, !1518, !1521, !1522, !1523, !1524, !1527, !1532, !1537, !1538, !1539, !1540, !1543, !1544, !1545, !1546, !1547, !1548, !1551, !1554, !1555, !1558, !1559, !1562, !1563, !1566, !1569, !1570, !1571, !1572, !1573, !1574, !1575, !1576, !1577, !1578, !1579, !1582, !1585, !1588, !1591, !1594, !1597, !1600, !1603, !1606, !1609, !1612, !1615, !1618, !1621, !1624, !1627, !1630, !1633, !1636, !1639, !1642, !1645, !1648, !1651, !1655, !1658, !1661, !1664, !1665, !1668, !1671, !1674, !1677, !1680, !1683, !1684, !1685, !1686, !1687, !1688, !1689, !1690, !1691, !1692, !1693, !1694, !1695, !1696, !1697, !1698, !1699, !1700, !1701, !1702, !1703, !1704, !1705, !1706, !1707, !1708, !1711, !1714, !1717, !1720, !1723, !1726, !1729, !1732, !1733, !1734, !1738, !1741, !1742, !1743, !1744, !1745, !1746, !1747, !1748, !1751, !1754, !1762, !1763, !1764, !1765, !1766, !1767, !1770, !1773, !1776, !1777, !1780, !1783, !1784, !1785, !1788, !1791, !1794, !1797, !1798, !1799, !1800, !1801}
!974 = !DIDerivedType(tag: DW_TAG_inheritance, scope: !972, baseType: !28)
!975 = !DIDerivedType(tag: DW_TAG_member, name: "__short_mask", scope: !972, file: !25, line: 707, baseType: !976, flags: DIFlagStaticMember, extraData: i64 1)
!976 = !DIDerivedType(tag: DW_TAG_const_type, baseType: !977)
!977 = !DIDerivedType(tag: DW_TAG_typedef, name: "size_type", scope: !972, file: !25, line: 640, baseType: !978)
!978 = !DIDerivedType(tag: DW_TAG_typedef, name: "size_type", scope: !979, file: !43, line: 1478, baseType: !1086)
!979 = distinct !DICompositeType(tag: DW_TAG_structure_type, name: "allocator_traits<std::__1::allocator<wchar_t> >", scope: !22, file: !43, line: 1467, size: 8, elements: !980, templateParams: !1085, identifier: "_ZTSNSt3__116allocator_traitsINS_9allocatorIwEEEE")
!980 = !{!981, !1032, !1056, !1059, !1064, !1067, !1070, !1073, !1076, !1079, !1082}
!981 = !DISubprogram(name: "allocate", linkageName: "_ZNSt3__116allocator_traitsINS_9allocatorIwEEE8allocateERS2_m", scope: !979, file: !43, line: 1501, type: !982, isLocal: false, isDefinition: false, scopeLine: 1501, flags: DIFlagPrototyped, isOptimized: false)
!982 = !DISubroutineType(types: !983)
!983 = !{!984, !1030, !978}
!984 = !DIDerivedType(tag: DW_TAG_typedef, name: "pointer", scope: !979, file: !43, line: 1472, baseType: !985)
!985 = !DIDerivedType(tag: DW_TAG_typedef, name: "type", scope: !986, file: !43, line: 1020, baseType: !1027)
!986 = distinct !DICompositeType(tag: DW_TAG_structure_type, name: "__pointer_type<wchar_t, std::__1::allocator<wchar_t> >", scope: !22, file: !43, line: 1018, size: 8, elements: !52, templateParams: !987, identifier: "_ZTSNSt3__114__pointer_typeIwNS_9allocatorIwEEEE")
!987 = !{!988, !990}
!988 = !DITemplateTypeParameter(name: "_Tp", type: !989)
!989 = !DIBasicType(name: "wchar_t", size: 32, encoding: DW_ATE_signed)
!990 = !DITemplateTypeParameter(name: "_Dp", type: !991)
!991 = distinct !DICompositeType(tag: DW_TAG_class_type, name: "allocator<wchar_t>", scope: !22, file: !43, line: 1720, size: 8, elements: !992, templateParams: !1026, identifier: "_ZTSNSt3__19allocatorIwEE")
!992 = !{!993, !997, !1006, !1014, !1017, !1020, !1023}
!993 = !DISubprogram(name: "allocator", scope: !991, file: !43, line: 1736, type: !994, isLocal: false, isDefinition: false, scopeLine: 1736, flags: DIFlagPublic | DIFlagPrototyped, isOptimized: false)
!994 = !DISubroutineType(types: !995)
!995 = !{null, !996}
!996 = !DIDerivedType(tag: DW_TAG_pointer_type, baseType: !991, size: 64, flags: DIFlagArtificial | DIFlagObjectPointer)
!997 = !DISubprogram(name: "address", linkageName: "_ZNKSt3__19allocatorIwE7addressERw", scope: !991, file: !43, line: 1738, type: !998, isLocal: false, isDefinition: false, scopeLine: 1738, flags: DIFlagPublic | DIFlagPrototyped, isOptimized: false)
!998 = !DISubroutineType(types: !999)
!999 = !{!1000, !1002, !1004}
!1000 = !DIDerivedType(tag: DW_TAG_typedef, name: "pointer", scope: !991, file: !43, line: 1725, baseType: !1001)
!1001 = !DIDerivedType(tag: DW_TAG_pointer_type, baseType: !989, size: 64)
!1002 = !DIDerivedType(tag: DW_TAG_pointer_type, baseType: !1003, size: 64, flags: DIFlagArtificial | DIFlagObjectPointer)
!1003 = !DIDerivedType(tag: DW_TAG_const_type, baseType: !991)
!1004 = !DIDerivedType(tag: DW_TAG_typedef, name: "reference", scope: !991, file: !43, line: 1727, baseType: !1005)
!1005 = !DIDerivedType(tag: DW_TAG_reference_type, baseType: !989, size: 64)
!1006 = !DISubprogram(name: "address", linkageName: "_ZNKSt3__19allocatorIwE7addressERKw", scope: !991, file: !43, line: 1740, type: !1007, isLocal: false, isDefinition: false, scopeLine: 1740, flags: DIFlagPublic | DIFlagPrototyped, isOptimized: false)
!1007 = !DISubroutineType(types: !1008)
!1008 = !{!1009, !1002, !1012}
!1009 = !DIDerivedType(tag: DW_TAG_typedef, name: "const_pointer", scope: !991, file: !43, line: 1726, baseType: !1010)
!1010 = !DIDerivedType(tag: DW_TAG_pointer_type, baseType: !1011, size: 64)
!1011 = !DIDerivedType(tag: DW_TAG_const_type, baseType: !989)
!1012 = !DIDerivedType(tag: DW_TAG_typedef, name: "const_reference", scope: !991, file: !43, line: 1728, baseType: !1013)
!1013 = !DIDerivedType(tag: DW_TAG_reference_type, baseType: !1011, size: 64)
!1014 = !DISubprogram(name: "allocate", linkageName: "_ZNSt3__19allocatorIwE8allocateEmPKv", scope: !991, file: !43, line: 1742, type: !1015, isLocal: false, isDefinition: false, scopeLine: 1742, flags: DIFlagPublic | DIFlagPrototyped, isOptimized: false)
!1015 = !DISubroutineType(types: !1016)
!1016 = !{!1000, !996, !80, !86}
!1017 = !DISubprogram(name: "deallocate", linkageName: "_ZNSt3__19allocatorIwE10deallocateEPwm", scope: !991, file: !43, line: 1749, type: !1018, isLocal: false, isDefinition: false, scopeLine: 1749, flags: DIFlagPublic | DIFlagPrototyped, isOptimized: false)
!1018 = !DISubroutineType(types: !1019)
!1019 = !{null, !996, !1000, !80}
!1020 = !DISubprogram(name: "max_size", linkageName: "_ZNKSt3__19allocatorIwE8max_sizeEv", scope: !991, file: !43, line: 1751, type: !1021, isLocal: false, isDefinition: false, scopeLine: 1751, flags: DIFlagPublic | DIFlagPrototyped, isOptimized: false)
!1021 = !DISubroutineType(types: !1022)
!1022 = !{!80, !1002}
!1023 = !DISubprogram(name: "destroy", linkageName: "_ZNSt3__19allocatorIwE7destroyEPw", scope: !991, file: !43, line: 1814, type: !1024, isLocal: false, isDefinition: false, scopeLine: 1814, flags: DIFlagPublic | DIFlagPrototyped, isOptimized: false)
!1024 = !DISubroutineType(types: !1025)
!1025 = !{null, !996, !1000}
!1026 = !{!988}
!1027 = !DIDerivedType(tag: DW_TAG_typedef, name: "type", scope: !1028, file: !43, line: 1006, baseType: !1000)
!1028 = distinct !DICompositeType(tag: DW_TAG_structure_type, name: "__pointer_type<wchar_t, std::__1::allocator<wchar_t>, true>", scope: !104, file: !43, line: 1004, size: 8, elements: !52, templateParams: !1029, identifier: "_ZTSNSt3__118__pointer_type_imp14__pointer_typeIwNS_9allocatorIwEELb1EEE")
!1029 = !{!988, !990, !37}
!1030 = !DIDerivedType(tag: DW_TAG_reference_type, baseType: !1031, size: 64)
!1031 = !DIDerivedType(tag: DW_TAG_typedef, name: "allocator_type", scope: !979, file: !43, line: 1469, baseType: !991)
!1032 = !DISubprogram(name: "allocate", linkageName: "_ZNSt3__116allocator_traitsINS_9allocatorIwEEE8allocateERS2_mPKv", scope: !979, file: !43, line: 1504, type: !1033, isLocal: false, isDefinition: false, scopeLine: 1504, flags: DIFlagPrototyped, isOptimized: false)
!1033 = !DISubroutineType(types: !1034)
!1034 = !{!984, !1030, !978, !1035}
!1035 = !DIDerivedType(tag: DW_TAG_typedef, name: "const_void_pointer", scope: !979, file: !43, line: 1475, baseType: !1036)
!1036 = !DIDerivedType(tag: DW_TAG_typedef, name: "type", scope: !1037, file: !43, line: 1086, baseType: !1041)
!1037 = distinct !DICompositeType(tag: DW_TAG_structure_type, name: "__const_void_pointer<wchar_t *, std::__1::allocator<wchar_t>, false>", scope: !22, file: !43, line: 1083, size: 8, elements: !52, templateParams: !1038, identifier: "_ZTSNSt3__120__const_void_pointerIPwNS_9allocatorIwEELb0EEE")
!1038 = !{!1039, !1040, !117}
!1039 = !DITemplateTypeParameter(name: "_Ptr", type: !1001)
!1040 = !DITemplateTypeParameter(name: "_Alloc", type: !991)
!1041 = !DIDerivedType(tag: DW_TAG_typedef, name: "rebind<const void>", scope: !1042, file: !43, line: 968, baseType: !90)
!1042 = distinct !DICompositeType(tag: DW_TAG_structure_type, name: "pointer_traits<wchar_t *>", scope: !22, file: !43, line: 961, size: 8, elements: !1043, templateParams: !1055, identifier: "_ZTSNSt3__114pointer_traitsIPwEE")
!1043 = !{!1044}
!1044 = !DISubprogram(name: "pointer_to", linkageName: "_ZNSt3__114pointer_traitsIPwE10pointer_toERw", scope: !1042, file: !43, line: 977, type: !1045, isLocal: false, isDefinition: false, scopeLine: 977, flags: DIFlagPrototyped, isOptimized: false)
!1045 = !DISubroutineType(types: !1046)
!1046 = !{!1047, !1048}
!1047 = !DIDerivedType(tag: DW_TAG_typedef, name: "pointer", scope: !1042, file: !43, line: 963, baseType: !1001)
!1048 = !DIDerivedType(tag: DW_TAG_reference_type, baseType: !1049, size: 64)
!1049 = !DIDerivedType(tag: DW_TAG_typedef, name: "type", scope: !1050, file: !127, line: 414, baseType: !989)
!1050 = distinct !DICompositeType(tag: DW_TAG_structure_type, name: "conditional<false, std::__1::pointer_traits<wchar_t *>::__nat, wchar_t>", scope: !22, file: !127, line: 414, size: 8, elements: !52, templateParams: !1051, identifier: "_ZTSNSt3__111conditionalILb0ENS_14pointer_traitsIPwE5__natEwEE")
!1051 = !{!130, !1052, !1054}
!1052 = !DITemplateTypeParameter(name: "_If", type: !1053)
!1053 = !DICompositeType(tag: DW_TAG_structure_type, name: "__nat", scope: !1042, file: !43, line: 974, flags: DIFlagFwdDecl, identifier: "_ZTSNSt3__114pointer_traitsIPwE5__natE")
!1054 = !DITemplateTypeParameter(name: "_Then", type: !989)
!1055 = !{!1039}
!1056 = !DISubprogram(name: "deallocate", linkageName: "_ZNSt3__116allocator_traitsINS_9allocatorIwEEE10deallocateERS2_Pwm", scope: !979, file: !43, line: 1509, type: !1057, isLocal: false, isDefinition: false, scopeLine: 1509, flags: DIFlagPrototyped, isOptimized: false)
!1057 = !DISubroutineType(types: !1058)
!1058 = !{null, !1030, !984, !978}
!1059 = !DISubprogram(name: "max_size", linkageName: "_ZNSt3__116allocator_traitsINS_9allocatorIwEEE8max_sizeERKS2_", scope: !979, file: !43, line: 1553, type: !1060, isLocal: false, isDefinition: false, scopeLine: 1553, flags: DIFlagPrototyped, isOptimized: false)
!1060 = !DISubroutineType(types: !1061)
!1061 = !{!978, !1062}
!1062 = !DIDerivedType(tag: DW_TAG_reference_type, baseType: !1063, size: 64)
!1063 = !DIDerivedType(tag: DW_TAG_const_type, baseType: !1031)
!1064 = !DISubprogram(name: "select_on_container_copy_construction", linkageName: "_ZNSt3__116allocator_traitsINS_9allocatorIwEEE37select_on_container_copy_constructionERKS2_", scope: !979, file: !43, line: 1558, type: !1065, isLocal: false, isDefinition: false, scopeLine: 1558, flags: DIFlagPrototyped, isOptimized: false)
!1065 = !DISubroutineType(types: !1066)
!1066 = !{!1031, !1062}
!1067 = !DISubprogram(name: "__allocate", linkageName: "_ZNSt3__116allocator_traitsINS_9allocatorIwEEE10__allocateERS2_mPKvNS_17integral_constantIbLb1EEE", scope: !979, file: !43, line: 1658, type: !1068, isLocal: false, isDefinition: false, scopeLine: 1658, flags: DIFlagPrivate | DIFlagPrototyped, isOptimized: false)
!1068 = !DISubroutineType(types: !1069)
!1069 = !{!984, !1030, !978, !1035, !149}
!1070 = !DISubprogram(name: "__allocate", linkageName: "_ZNSt3__116allocator_traitsINS_9allocatorIwEEE10__allocateERS2_mPKvNS_17integral_constantIbLb0EEE", scope: !979, file: !43, line: 1662, type: !1071, isLocal: false, isDefinition: false, scopeLine: 1662, flags: DIFlagPrivate | DIFlagPrototyped, isOptimized: false)
!1071 = !DISubroutineType(types: !1072)
!1072 = !{!984, !1030, !978, !1035, !166}
!1073 = !DISubprogram(name: "__max_size", linkageName: "_ZNSt3__116allocator_traitsINS_9allocatorIwEEE10__max_sizeENS_17integral_constantIbLb1EEERKS2_", scope: !979, file: !43, line: 1691, type: !1074, isLocal: false, isDefinition: false, scopeLine: 1691, flags: DIFlagPrivate | DIFlagPrototyped, isOptimized: false)
!1074 = !DISubroutineType(types: !1075)
!1075 = !{!978, !149, !1062}
!1076 = !DISubprogram(name: "__max_size", linkageName: "_ZNSt3__116allocator_traitsINS_9allocatorIwEEE10__max_sizeENS_17integral_constantIbLb0EEERKS2_", scope: !979, file: !43, line: 1694, type: !1077, isLocal: false, isDefinition: false, scopeLine: 1694, flags: DIFlagPrivate | DIFlagPrototyped, isOptimized: false)
!1077 = !DISubroutineType(types: !1078)
!1078 = !{!978, !166, !1062}
!1079 = !DISubprogram(name: "__select_on_container_copy_construction", linkageName: "_ZNSt3__116allocator_traitsINS_9allocatorIwEEE39__select_on_container_copy_constructionENS_17integral_constantIbLb1EEERKS2_", scope: !979, file: !43, line: 1699, type: !1080, isLocal: false, isDefinition: false, scopeLine: 1699, flags: DIFlagPrivate | DIFlagPrototyped, isOptimized: false)
!1080 = !DISubroutineType(types: !1081)
!1081 = !{!1031, !149, !1062}
!1082 = !DISubprogram(name: "__select_on_container_copy_construction", linkageName: "_ZNSt3__116allocator_traitsINS_9allocatorIwEEE39__select_on_container_copy_constructionENS_17integral_constantIbLb0EEERKS2_", scope: !979, file: !43, line: 1703, type: !1083, isLocal: false, isDefinition: false, scopeLine: 1703, flags: DIFlagPrivate | DIFlagPrototyped, isOptimized: false)
!1083 = !DISubroutineType(types: !1084)
!1084 = !{!1031, !166, !1062}
!1085 = !{!1040}
!1086 = !DIDerivedType(tag: DW_TAG_typedef, name: "type", scope: !1087, file: !43, line: 1124, baseType: !1089)
!1087 = distinct !DICompositeType(tag: DW_TAG_structure_type, name: "__size_type<std::__1::allocator<wchar_t>, long, true>", scope: !22, file: !43, line: 1122, size: 8, elements: !52, templateParams: !1088, identifier: "_ZTSNSt3__111__size_typeINS_9allocatorIwEElLb1EEE")
!1088 = !{!1040, !194, !37}
!1089 = !DIDerivedType(tag: DW_TAG_typedef, name: "size_type", scope: !991, file: !43, line: 1723, baseType: !81)
!1090 = !DIDerivedType(tag: DW_TAG_member, name: "__long_mask", scope: !972, file: !25, line: 708, baseType: !976, flags: DIFlagStaticMember, extraData: i64 1)
!1091 = !DIDerivedType(tag: DW_TAG_member, name: "__r_", scope: !972, file: !25, line: 745, baseType: !1092, size: 192)
!1092 = distinct !DICompositeType(tag: DW_TAG_class_type, name: "__compressed_pair<std::__1::basic_string<wchar_t, std::__1::char_traits<wchar_t>, std::__1::allocator<wchar_t> >::__rep, std::__1::allocator<wchar_t> >", scope: !22, file: !43, line: 2111, size: 192, elements: !1093, templateParams: !1188, identifier: "_ZTSNSt3__117__compressed_pairINS_12basic_stringIwNS_11char_traitsIwEENS_9allocatorIwEEE5__repES5_EE")
!1093 = !{!1094, !1147, !1169, !1173, !1178, !1181, !1184}
!1094 = !DIDerivedType(tag: DW_TAG_inheritance, scope: !1092, baseType: !1095)
!1095 = distinct !DICompositeType(tag: DW_TAG_structure_type, name: "__compressed_pair_elem<std::__1::basic_string<wchar_t, std::__1::char_traits<wchar_t>, std::__1::allocator<wchar_t> >::__rep, 0, false>", scope: !22, file: !43, line: 2037, size: 192, elements: !1096, templateParams: !1145, identifier: "_ZTSNSt3__122__compressed_pair_elemINS_12basic_stringIwNS_11char_traitsIwEENS_9allocatorIwEEE5__repELi0ELb0EEE")
!1096 = !{!1097, !1128, !1132, !1137}
!1097 = !DIDerivedType(tag: DW_TAG_member, name: "__value_", scope: !1095, file: !43, line: 2069, baseType: !1098, size: 192, flags: DIFlagPrivate)
!1098 = distinct !DICompositeType(tag: DW_TAG_structure_type, name: "__rep", scope: !972, file: !25, line: 735, size: 192, elements: !1099, identifier: "_ZTSNSt3__112basic_stringIwNS_11char_traitsIwEENS_9allocatorIwEEE5__repE")
!1099 = !{!1100}
!1100 = !DIDerivedType(tag: DW_TAG_member, scope: !1098, file: !25, line: 737, baseType: !1101, size: 192)
!1101 = distinct !DICompositeType(tag: DW_TAG_union_type, scope: !1098, file: !25, line: 737, size: 192, elements: !1102, identifier: "_ZTSNSt3__112basic_stringIwNS_11char_traitsIwEENS_9allocatorIwEEE5__repUt_E")
!1102 = !{!1103, !1110, !1123}
!1103 = !DIDerivedType(tag: DW_TAG_member, name: "__l", scope: !1101, file: !25, line: 739, baseType: !1104, size: 192)
!1104 = distinct !DICompositeType(tag: DW_TAG_structure_type, name: "__long", scope: !972, file: !25, line: 696, size: 192, elements: !1105, identifier: "_ZTSNSt3__112basic_stringIwNS_11char_traitsIwEENS_9allocatorIwEEE6__longE")
!1105 = !{!1106, !1107, !1108}
!1106 = !DIDerivedType(tag: DW_TAG_member, name: "__cap_", scope: !1104, file: !25, line: 698, baseType: !977, size: 64)
!1107 = !DIDerivedType(tag: DW_TAG_member, name: "__size_", scope: !1104, file: !25, line: 699, baseType: !977, size: 64, offset: 64)
!1108 = !DIDerivedType(tag: DW_TAG_member, name: "__data_", scope: !1104, file: !25, line: 700, baseType: !1109, size: 64, offset: 128)
!1109 = !DIDerivedType(tag: DW_TAG_typedef, name: "pointer", scope: !972, file: !25, line: 644, baseType: !984)
!1110 = !DIDerivedType(tag: DW_TAG_member, name: "__s", scope: !1101, file: !25, line: 740, baseType: !1111, size: 192)
!1111 = distinct !DICompositeType(tag: DW_TAG_structure_type, name: "__short", scope: !972, file: !25, line: 714, size: 192, elements: !1112, identifier: "_ZTSNSt3__112basic_stringIwNS_11char_traitsIwEENS_9allocatorIwEEE7__shortE")
!1112 = !{!1113, !1119}
!1113 = !DIDerivedType(tag: DW_TAG_member, scope: !1111, file: !25, line: 716, baseType: !1114, size: 32)
!1114 = distinct !DICompositeType(tag: DW_TAG_union_type, scope: !1111, file: !25, line: 716, size: 32, elements: !1115, identifier: "_ZTSNSt3__112basic_stringIwNS_11char_traitsIwEENS_9allocatorIwEEE7__shortUt_E")
!1115 = !{!1116, !1117}
!1116 = !DIDerivedType(tag: DW_TAG_member, name: "__size_", scope: !1114, file: !25, line: 718, baseType: !224, size: 8)
!1117 = !DIDerivedType(tag: DW_TAG_member, name: "__lx", scope: !1114, file: !25, line: 719, baseType: !1118, size: 32)
!1118 = !DIDerivedType(tag: DW_TAG_typedef, name: "value_type", scope: !972, file: !25, line: 637, baseType: !989)
!1119 = !DIDerivedType(tag: DW_TAG_member, name: "__data_", scope: !1111, file: !25, line: 721, baseType: !1120, size: 160, offset: 32)
!1120 = !DICompositeType(tag: DW_TAG_array_type, baseType: !1118, size: 160, elements: !1121)
!1121 = !{!1122}
!1122 = !DISubrange(count: 5)
!1123 = !DIDerivedType(tag: DW_TAG_member, name: "__r", scope: !1101, file: !25, line: 741, baseType: !1124, size: 192)
!1124 = distinct !DICompositeType(tag: DW_TAG_structure_type, name: "__raw", scope: !972, file: !25, line: 730, size: 192, elements: !1125, identifier: "_ZTSNSt3__112basic_stringIwNS_11char_traitsIwEENS_9allocatorIwEEE5__rawE")
!1125 = !{!1126}
!1126 = !DIDerivedType(tag: DW_TAG_member, name: "__words", scope: !1124, file: !25, line: 732, baseType: !1127, size: 192)
!1127 = !DICompositeType(tag: DW_TAG_array_type, baseType: !977, size: 192, elements: !236)
!1128 = !DISubprogram(name: "__compressed_pair_elem", scope: !1095, file: !43, line: 2043, type: !1129, isLocal: false, isDefinition: false, scopeLine: 2043, flags: DIFlagPrototyped, isOptimized: false)
!1129 = !DISubroutineType(types: !1130)
!1130 = !{null, !1131}
!1131 = !DIDerivedType(tag: DW_TAG_pointer_type, baseType: !1095, size: 64, flags: DIFlagArtificial | DIFlagObjectPointer)
!1132 = !DISubprogram(name: "__get", linkageName: "_ZNSt3__122__compressed_pair_elemINS_12basic_stringIwNS_11char_traitsIwEENS_9allocatorIwEEE5__repELi0ELb0EE5__getEv", scope: !1095, file: !43, line: 2064, type: !1133, isLocal: false, isDefinition: false, scopeLine: 2064, flags: DIFlagPrototyped, isOptimized: false)
!1133 = !DISubroutineType(types: !1134)
!1134 = !{!1135, !1131}
!1135 = !DIDerivedType(tag: DW_TAG_typedef, name: "reference", scope: !1095, file: !43, line: 2039, baseType: !1136)
!1136 = !DIDerivedType(tag: DW_TAG_reference_type, baseType: !1098, size: 64)
!1137 = !DISubprogram(name: "__get", linkageName: "_ZNKSt3__122__compressed_pair_elemINS_12basic_stringIwNS_11char_traitsIwEENS_9allocatorIwEEE5__repELi0ELb0EE5__getEv", scope: !1095, file: !43, line: 2066, type: !1138, isLocal: false, isDefinition: false, scopeLine: 2066, flags: DIFlagPrototyped, isOptimized: false)
!1138 = !DISubroutineType(types: !1139)
!1139 = !{!1140, !1143}
!1140 = !DIDerivedType(tag: DW_TAG_typedef, name: "const_reference", scope: !1095, file: !43, line: 2040, baseType: !1141)
!1141 = !DIDerivedType(tag: DW_TAG_reference_type, baseType: !1142, size: 64)
!1142 = !DIDerivedType(tag: DW_TAG_const_type, baseType: !1098)
!1143 = !DIDerivedType(tag: DW_TAG_pointer_type, baseType: !1144, size: 64, flags: DIFlagArtificial | DIFlagObjectPointer)
!1144 = !DIDerivedType(tag: DW_TAG_const_type, baseType: !1095)
!1145 = !{!1146, !257, !258}
!1146 = !DITemplateTypeParameter(name: "_Tp", type: !1098)
!1147 = !DIDerivedType(tag: DW_TAG_inheritance, scope: !1092, baseType: !1148)
!1148 = distinct !DICompositeType(tag: DW_TAG_structure_type, name: "__compressed_pair_elem<std::__1::allocator<wchar_t>, 1, true>", scope: !22, file: !43, line: 2073, size: 8, elements: !1149, templateParams: !1167, identifier: "_ZTSNSt3__122__compressed_pair_elemINS_9allocatorIwEELi1ELb1EEE")
!1149 = !{!1150, !1151, !1155, !1160}
!1150 = !DIDerivedType(tag: DW_TAG_inheritance, scope: !1148, baseType: !991, flags: DIFlagPrivate)
!1151 = !DISubprogram(name: "__compressed_pair_elem", scope: !1148, file: !43, line: 2080, type: !1152, isLocal: false, isDefinition: false, scopeLine: 2080, flags: DIFlagPrototyped, isOptimized: false)
!1152 = !DISubroutineType(types: !1153)
!1153 = !{null, !1154}
!1154 = !DIDerivedType(tag: DW_TAG_pointer_type, baseType: !1148, size: 64, flags: DIFlagArtificial | DIFlagObjectPointer)
!1155 = !DISubprogram(name: "__get", linkageName: "_ZNSt3__122__compressed_pair_elemINS_9allocatorIwEELi1ELb1EE5__getEv", scope: !1148, file: !43, line: 2102, type: !1156, isLocal: false, isDefinition: false, scopeLine: 2102, flags: DIFlagPrototyped, isOptimized: false)
!1156 = !DISubroutineType(types: !1157)
!1157 = !{!1158, !1154}
!1158 = !DIDerivedType(tag: DW_TAG_typedef, name: "reference", scope: !1148, file: !43, line: 2075, baseType: !1159)
!1159 = !DIDerivedType(tag: DW_TAG_reference_type, baseType: !991, size: 64)
!1160 = !DISubprogram(name: "__get", linkageName: "_ZNKSt3__122__compressed_pair_elemINS_9allocatorIwEELi1ELb1EE5__getEv", scope: !1148, file: !43, line: 2104, type: !1161, isLocal: false, isDefinition: false, scopeLine: 2104, flags: DIFlagPrototyped, isOptimized: false)
!1161 = !DISubroutineType(types: !1162)
!1162 = !{!1163, !1165}
!1163 = !DIDerivedType(tag: DW_TAG_typedef, name: "const_reference", scope: !1148, file: !43, line: 2076, baseType: !1164)
!1164 = !DIDerivedType(tag: DW_TAG_reference_type, baseType: !1003, size: 64)
!1165 = !DIDerivedType(tag: DW_TAG_pointer_type, baseType: !1166, size: 64, flags: DIFlagArtificial | DIFlagObjectPointer)
!1166 = !DIDerivedType(tag: DW_TAG_const_type, baseType: !1148)
!1167 = !{!1168, !281, !282}
!1168 = !DITemplateTypeParameter(name: "_Tp", type: !991)
!1169 = !DISubprogram(name: "first", linkageName: "_ZNSt3__117__compressed_pairINS_12basic_stringIwNS_11char_traitsIwEENS_9allocatorIwEEE5__repES5_E5firstEv", scope: !1092, file: !43, line: 2179, type: !1170, isLocal: false, isDefinition: false, scopeLine: 2179, flags: DIFlagPublic | DIFlagPrototyped, isOptimized: false)
!1170 = !DISubroutineType(types: !1171)
!1171 = !{!1135, !1172}
!1172 = !DIDerivedType(tag: DW_TAG_pointer_type, baseType: !1092, size: 64, flags: DIFlagArtificial | DIFlagObjectPointer)
!1173 = !DISubprogram(name: "first", linkageName: "_ZNKSt3__117__compressed_pairINS_12basic_stringIwNS_11char_traitsIwEENS_9allocatorIwEEE5__repES5_E5firstEv", scope: !1092, file: !43, line: 2184, type: !1174, isLocal: false, isDefinition: false, scopeLine: 2184, flags: DIFlagPublic | DIFlagPrototyped, isOptimized: false)
!1174 = !DISubroutineType(types: !1175)
!1175 = !{!1140, !1176}
!1176 = !DIDerivedType(tag: DW_TAG_pointer_type, baseType: !1177, size: 64, flags: DIFlagArtificial | DIFlagObjectPointer)
!1177 = !DIDerivedType(tag: DW_TAG_const_type, baseType: !1092)
!1178 = !DISubprogram(name: "second", linkageName: "_ZNSt3__117__compressed_pairINS_12basic_stringIwNS_11char_traitsIwEENS_9allocatorIwEEE5__repES5_E6secondEv", scope: !1092, file: !43, line: 2189, type: !1179, isLocal: false, isDefinition: false, scopeLine: 2189, flags: DIFlagPublic | DIFlagPrototyped, isOptimized: false)
!1179 = !DISubroutineType(types: !1180)
!1180 = !{!1158, !1172}
!1181 = !DISubprogram(name: "second", linkageName: "_ZNKSt3__117__compressed_pairINS_12basic_stringIwNS_11char_traitsIwEENS_9allocatorIwEEE5__repES5_E6secondEv", scope: !1092, file: !43, line: 2194, type: !1182, isLocal: false, isDefinition: false, scopeLine: 2194, flags: DIFlagPublic | DIFlagPrototyped, isOptimized: false)
!1182 = !DISubroutineType(types: !1183)
!1183 = !{!1163, !1176}
!1184 = !DISubprogram(name: "swap", linkageName: "_ZNSt3__117__compressed_pairINS_12basic_stringIwNS_11char_traitsIwEENS_9allocatorIwEEE5__repES5_E4swapERS8_", scope: !1092, file: !43, line: 2199, type: !1185, isLocal: false, isDefinition: false, scopeLine: 2199, flags: DIFlagPublic | DIFlagPrototyped, isOptimized: false)
!1185 = !DISubroutineType(types: !1186)
!1186 = !{null, !1172, !1187}
!1187 = !DIDerivedType(tag: DW_TAG_reference_type, baseType: !1092, size: 64)
!1188 = !{!1189, !1190}
!1189 = !DITemplateTypeParameter(name: "_T1", type: !1098)
!1190 = !DITemplateTypeParameter(name: "_T2", type: !991)
!1191 = !DIDerivedType(tag: DW_TAG_member, name: "npos", scope: !972, file: !25, line: 748, baseType: !976, flags: DIFlagPublic | DIFlagStaticMember, extraData: i64 -1)
!1192 = !DISubprogram(name: "basic_string", scope: !972, file: !25, line: 750, type: !1193, isLocal: false, isDefinition: false, scopeLine: 750, flags: DIFlagPublic | DIFlagPrototyped, isOptimized: false)
!1193 = !DISubroutineType(types: !1194)
!1194 = !{null, !1195}
!1195 = !DIDerivedType(tag: DW_TAG_pointer_type, baseType: !972, size: 64, flags: DIFlagArtificial | DIFlagObjectPointer)
!1196 = !DISubprogram(name: "basic_string", scope: !972, file: !25, line: 753, type: !1197, isLocal: false, isDefinition: false, scopeLine: 753, flags: DIFlagPublic | DIFlagExplicit | DIFlagPrototyped, isOptimized: false)
!1197 = !DISubroutineType(types: !1198)
!1198 = !{null, !1195, !1199}
!1199 = !DIDerivedType(tag: DW_TAG_reference_type, baseType: !1200, size: 64)
!1200 = !DIDerivedType(tag: DW_TAG_const_type, baseType: !1201)
!1201 = !DIDerivedType(tag: DW_TAG_typedef, name: "allocator_type", scope: !972, file: !25, line: 638, baseType: !991)
!1202 = !DISubprogram(name: "basic_string", scope: !972, file: !25, line: 760, type: !1203, isLocal: false, isDefinition: false, scopeLine: 760, flags: DIFlagPublic | DIFlagPrototyped, isOptimized: false)
!1203 = !DISubroutineType(types: !1204)
!1204 = !{null, !1195, !1205}
!1205 = !DIDerivedType(tag: DW_TAG_reference_type, baseType: !1206, size: 64)
!1206 = !DIDerivedType(tag: DW_TAG_const_type, baseType: !972)
!1207 = !DISubprogram(name: "basic_string", scope: !972, file: !25, line: 761, type: !1208, isLocal: false, isDefinition: false, scopeLine: 761, flags: DIFlagPublic | DIFlagPrototyped, isOptimized: false)
!1208 = !DISubroutineType(types: !1209)
!1209 = !{null, !1195, !1205, !1199}
!1210 = !DISubprogram(name: "basic_string", scope: !972, file: !25, line: 765, type: !1211, isLocal: false, isDefinition: false, scopeLine: 765, flags: DIFlagPublic | DIFlagPrototyped, isOptimized: false)
!1211 = !DISubroutineType(types: !1212)
!1212 = !{null, !1195, !1213}
!1213 = !DIDerivedType(tag: DW_TAG_rvalue_reference_type, baseType: !972, size: 64)
!1214 = !DISubprogram(name: "basic_string", scope: !972, file: !25, line: 773, type: !1215, isLocal: false, isDefinition: false, scopeLine: 773, flags: DIFlagPublic | DIFlagPrototyped, isOptimized: false)
!1215 = !DISubroutineType(types: !1216)
!1216 = !{null, !1195, !1213, !1199}
!1217 = !DISubprogram(name: "basic_string", scope: !972, file: !25, line: 775, type: !1218, isLocal: false, isDefinition: false, scopeLine: 775, flags: DIFlagPublic | DIFlagPrototyped, isOptimized: false)
!1218 = !DISubroutineType(types: !1219)
!1219 = !{null, !1195, !1010}
!1220 = !DISubprogram(name: "basic_string", scope: !972, file: !25, line: 777, type: !1221, isLocal: false, isDefinition: false, scopeLine: 777, flags: DIFlagPublic | DIFlagPrototyped, isOptimized: false)
!1221 = !DISubroutineType(types: !1222)
!1222 = !{null, !1195, !1010, !1164}
!1223 = !DISubprogram(name: "basic_string", scope: !972, file: !25, line: 779, type: !1224, isLocal: false, isDefinition: false, scopeLine: 779, flags: DIFlagPublic | DIFlagPrototyped, isOptimized: false)
!1224 = !DISubroutineType(types: !1225)
!1225 = !{null, !1195, !1010, !977}
!1226 = !DISubprogram(name: "basic_string", scope: !972, file: !25, line: 781, type: !1227, isLocal: false, isDefinition: false, scopeLine: 781, flags: DIFlagPublic | DIFlagPrototyped, isOptimized: false)
!1227 = !DISubroutineType(types: !1228)
!1228 = !{null, !1195, !1010, !977, !1164}
!1229 = !DISubprogram(name: "basic_string", scope: !972, file: !25, line: 783, type: !1230, isLocal: false, isDefinition: false, scopeLine: 783, flags: DIFlagPublic | DIFlagPrototyped, isOptimized: false)
!1230 = !DISubroutineType(types: !1231)
!1231 = !{null, !1195, !977, !989}
!1232 = !DISubprogram(name: "basic_string", scope: !972, file: !25, line: 785, type: !1233, isLocal: false, isDefinition: false, scopeLine: 785, flags: DIFlagPublic | DIFlagPrototyped, isOptimized: false)
!1233 = !DISubroutineType(types: !1234)
!1234 = !{null, !1195, !977, !989, !1164}
!1235 = !DISubprogram(name: "basic_string", scope: !972, file: !25, line: 786, type: !1236, isLocal: false, isDefinition: false, scopeLine: 786, flags: DIFlagPublic | DIFlagPrototyped, isOptimized: false)
!1236 = !DISubroutineType(types: !1237)
!1237 = !{null, !1195, !1205, !977, !977, !1164}
!1238 = !DISubprogram(name: "basic_string", scope: !972, file: !25, line: 789, type: !1239, isLocal: false, isDefinition: false, scopeLine: 789, flags: DIFlagPublic | DIFlagPrototyped, isOptimized: false)
!1239 = !DISubroutineType(types: !1240)
!1240 = !{null, !1195, !1205, !977, !1164}
!1241 = !DISubprogram(name: "basic_string", scope: !972, file: !25, line: 797, type: !1242, isLocal: false, isDefinition: false, scopeLine: 797, flags: DIFlagPublic | DIFlagExplicit | DIFlagPrototyped, isOptimized: false)
!1242 = !DISubroutineType(types: !1243)
!1243 = !{null, !1195, !1244}
!1244 = !DIDerivedType(tag: DW_TAG_typedef, name: "__self_view", scope: !972, file: !25, line: 635, baseType: !1245)
!1245 = distinct !DICompositeType(tag: DW_TAG_class_type, name: "basic_string_view<wchar_t, std::__1::char_traits<wchar_t> >", scope: !22, file: !360, line: 187, size: 128, elements: !1246, templateParams: !1373, identifier: "_ZTSNSt3__117basic_string_viewIwNS_11char_traitsIwEEEE")
!1246 = !{!1247, !1248, !1252, !1253, !1257, !1262, !1266, !1269, !1272, !1278, !1279, !1280, !1281, !1286, !1287, !1288, !1289, !1292, !1293, !1294, !1297, !1301, !1302, !1305, !1306, !1309, !1312, !1313, !1316, !1320, !1323, !1326, !1329, !1332, !1335, !1338, !1341, !1344, !1347, !1350, !1353, !1354, !1355, !1356, !1357, !1358, !1359, !1360, !1361, !1362, !1363, !1364, !1365, !1366, !1367, !1368, !1369, !1370, !1371, !1372}
!1247 = !DIDerivedType(tag: DW_TAG_member, name: "npos", scope: !1245, file: !360, line: 202, baseType: !363, flags: DIFlagPublic | DIFlagStaticMember, extraData: i64 -1)
!1248 = !DIDerivedType(tag: DW_TAG_member, name: "__data", scope: !1245, file: !360, line: 569, baseType: !1249, size: 64)
!1249 = !DIDerivedType(tag: DW_TAG_pointer_type, baseType: !1250, size: 64)
!1250 = !DIDerivedType(tag: DW_TAG_const_type, baseType: !1251)
!1251 = !DIDerivedType(tag: DW_TAG_typedef, name: "value_type", scope: !1245, file: !360, line: 191, baseType: !989)
!1252 = !DIDerivedType(tag: DW_TAG_member, name: "__size", scope: !1245, file: !360, line: 570, baseType: !364, size: 64, offset: 64)
!1253 = !DISubprogram(name: "basic_string_view", scope: !1245, file: !360, line: 210, type: !1254, isLocal: false, isDefinition: false, scopeLine: 210, flags: DIFlagPublic | DIFlagPrototyped, isOptimized: false)
!1254 = !DISubroutineType(types: !1255)
!1255 = !{null, !1256}
!1256 = !DIDerivedType(tag: DW_TAG_pointer_type, baseType: !1245, size: 64, flags: DIFlagArtificial | DIFlagObjectPointer)
!1257 = !DISubprogram(name: "basic_string_view", scope: !1245, file: !360, line: 213, type: !1258, isLocal: false, isDefinition: false, scopeLine: 213, flags: DIFlagPublic | DIFlagPrototyped, isOptimized: false)
!1258 = !DISubroutineType(types: !1259)
!1259 = !{null, !1256, !1260}
!1260 = !DIDerivedType(tag: DW_TAG_reference_type, baseType: !1261, size: 64)
!1261 = !DIDerivedType(tag: DW_TAG_const_type, baseType: !1245)
!1262 = !DISubprogram(name: "operator=", linkageName: "_ZNSt3__117basic_string_viewIwNS_11char_traitsIwEEEaSERKS3_", scope: !1245, file: !360, line: 216, type: !1263, isLocal: false, isDefinition: false, scopeLine: 216, flags: DIFlagPublic | DIFlagPrototyped, isOptimized: false)
!1263 = !DISubroutineType(types: !1264)
!1264 = !{!1265, !1256, !1260}
!1265 = !DIDerivedType(tag: DW_TAG_reference_type, baseType: !1245, size: 64)
!1266 = !DISubprogram(name: "basic_string_view", scope: !1245, file: !360, line: 219, type: !1267, isLocal: false, isDefinition: false, scopeLine: 219, flags: DIFlagPublic | DIFlagPrototyped, isOptimized: false)
!1267 = !DISubroutineType(types: !1268)
!1268 = !{null, !1256, !1010, !364}
!1269 = !DISubprogram(name: "basic_string_view", scope: !1245, file: !360, line: 228, type: !1270, isLocal: false, isDefinition: false, scopeLine: 228, flags: DIFlagPublic | DIFlagPrototyped, isOptimized: false)
!1270 = !DISubroutineType(types: !1271)
!1271 = !{null, !1256, !1010}
!1272 = !DISubprogram(name: "begin", linkageName: "_ZNKSt3__117basic_string_viewIwNS_11char_traitsIwEEE5beginEv", scope: !1245, file: !360, line: 233, type: !1273, isLocal: false, isDefinition: false, scopeLine: 233, flags: DIFlagPublic | DIFlagPrototyped, isOptimized: false)
!1273 = !DISubroutineType(types: !1274)
!1274 = !{!1275, !1277}
!1275 = !DIDerivedType(tag: DW_TAG_typedef, name: "const_iterator", scope: !1245, file: !360, line: 196, baseType: !1276)
!1276 = !DIDerivedType(tag: DW_TAG_typedef, name: "const_pointer", scope: !1245, file: !360, line: 193, baseType: !1010)
!1277 = !DIDerivedType(tag: DW_TAG_pointer_type, baseType: !1261, size: 64, flags: DIFlagArtificial | DIFlagObjectPointer)
!1278 = !DISubprogram(name: "end", linkageName: "_ZNKSt3__117basic_string_viewIwNS_11char_traitsIwEEE3endEv", scope: !1245, file: !360, line: 236, type: !1273, isLocal: false, isDefinition: false, scopeLine: 236, flags: DIFlagPublic | DIFlagPrototyped, isOptimized: false)
!1279 = !DISubprogram(name: "cbegin", linkageName: "_ZNKSt3__117basic_string_viewIwNS_11char_traitsIwEEE6cbeginEv", scope: !1245, file: !360, line: 239, type: !1273, isLocal: false, isDefinition: false, scopeLine: 239, flags: DIFlagPublic | DIFlagPrototyped, isOptimized: false)
!1280 = !DISubprogram(name: "cend", linkageName: "_ZNKSt3__117basic_string_viewIwNS_11char_traitsIwEEE4cendEv", scope: !1245, file: !360, line: 242, type: !1273, isLocal: false, isDefinition: false, scopeLine: 242, flags: DIFlagPublic | DIFlagPrototyped, isOptimized: false)
!1281 = !DISubprogram(name: "rbegin", linkageName: "_ZNKSt3__117basic_string_viewIwNS_11char_traitsIwEEE6rbeginEv", scope: !1245, file: !360, line: 245, type: !1282, isLocal: false, isDefinition: false, scopeLine: 245, flags: DIFlagPublic | DIFlagPrototyped, isOptimized: false)
!1282 = !DISubroutineType(types: !1283)
!1283 = !{!1284, !1277}
!1284 = !DIDerivedType(tag: DW_TAG_typedef, name: "const_reverse_iterator", scope: !1245, file: !360, line: 198, baseType: !1285)
!1285 = !DICompositeType(tag: DW_TAG_class_type, name: "reverse_iterator<const wchar_t *>", scope: !22, file: !403, line: 636, flags: DIFlagFwdDecl, identifier: "_ZTSNSt3__116reverse_iteratorIPKwEE")
!1286 = !DISubprogram(name: "rend", linkageName: "_ZNKSt3__117basic_string_viewIwNS_11char_traitsIwEEE4rendEv", scope: !1245, file: !360, line: 248, type: !1282, isLocal: false, isDefinition: false, scopeLine: 248, flags: DIFlagPublic | DIFlagPrototyped, isOptimized: false)
!1287 = !DISubprogram(name: "crbegin", linkageName: "_ZNKSt3__117basic_string_viewIwNS_11char_traitsIwEEE7crbeginEv", scope: !1245, file: !360, line: 251, type: !1282, isLocal: false, isDefinition: false, scopeLine: 251, flags: DIFlagPublic | DIFlagPrototyped, isOptimized: false)
!1288 = !DISubprogram(name: "crend", linkageName: "_ZNKSt3__117basic_string_viewIwNS_11char_traitsIwEEE5crendEv", scope: !1245, file: !360, line: 254, type: !1282, isLocal: false, isDefinition: false, scopeLine: 254, flags: DIFlagPublic | DIFlagPrototyped, isOptimized: false)
!1289 = !DISubprogram(name: "size", linkageName: "_ZNKSt3__117basic_string_viewIwNS_11char_traitsIwEEE4sizeEv", scope: !1245, file: !360, line: 258, type: !1290, isLocal: false, isDefinition: false, scopeLine: 258, flags: DIFlagPublic | DIFlagPrototyped, isOptimized: false)
!1290 = !DISubroutineType(types: !1291)
!1291 = !{!364, !1277}
!1292 = !DISubprogram(name: "length", linkageName: "_ZNKSt3__117basic_string_viewIwNS_11char_traitsIwEEE6lengthEv", scope: !1245, file: !360, line: 261, type: !1290, isLocal: false, isDefinition: false, scopeLine: 261, flags: DIFlagPublic | DIFlagPrototyped, isOptimized: false)
!1293 = !DISubprogram(name: "max_size", linkageName: "_ZNKSt3__117basic_string_viewIwNS_11char_traitsIwEEE8max_sizeEv", scope: !1245, file: !360, line: 264, type: !1290, isLocal: false, isDefinition: false, scopeLine: 264, flags: DIFlagPublic | DIFlagPrototyped, isOptimized: false)
!1294 = !DISubprogram(name: "empty", linkageName: "_ZNKSt3__117basic_string_viewIwNS_11char_traitsIwEEE5emptyEv", scope: !1245, file: !360, line: 267, type: !1295, isLocal: false, isDefinition: false, scopeLine: 267, flags: DIFlagPublic | DIFlagPrototyped, isOptimized: false)
!1295 = !DISubroutineType(types: !1296)
!1296 = !{!38, !1277}
!1297 = !DISubprogram(name: "operator[]", linkageName: "_ZNKSt3__117basic_string_viewIwNS_11char_traitsIwEEEixEm", scope: !1245, file: !360, line: 271, type: !1298, isLocal: false, isDefinition: false, scopeLine: 271, flags: DIFlagPublic | DIFlagPrototyped, isOptimized: false)
!1298 = !DISubroutineType(types: !1299)
!1299 = !{!1300, !1277, !364}
!1300 = !DIDerivedType(tag: DW_TAG_typedef, name: "const_reference", scope: !1245, file: !360, line: 195, baseType: !1013)
!1301 = !DISubprogram(name: "at", linkageName: "_ZNKSt3__117basic_string_viewIwNS_11char_traitsIwEEE2atEm", scope: !1245, file: !360, line: 274, type: !1298, isLocal: false, isDefinition: false, scopeLine: 274, flags: DIFlagPublic | DIFlagPrototyped, isOptimized: false)
!1302 = !DISubprogram(name: "front", linkageName: "_ZNKSt3__117basic_string_viewIwNS_11char_traitsIwEEE5frontEv", scope: !1245, file: !360, line: 282, type: !1303, isLocal: false, isDefinition: false, scopeLine: 282, flags: DIFlagPublic | DIFlagPrototyped, isOptimized: false)
!1303 = !DISubroutineType(types: !1304)
!1304 = !{!1300, !1277}
!1305 = !DISubprogram(name: "back", linkageName: "_ZNKSt3__117basic_string_viewIwNS_11char_traitsIwEEE4backEv", scope: !1245, file: !360, line: 288, type: !1303, isLocal: false, isDefinition: false, scopeLine: 288, flags: DIFlagPublic | DIFlagPrototyped, isOptimized: false)
!1306 = !DISubprogram(name: "data", linkageName: "_ZNKSt3__117basic_string_viewIwNS_11char_traitsIwEEE4dataEv", scope: !1245, file: !360, line: 294, type: !1307, isLocal: false, isDefinition: false, scopeLine: 294, flags: DIFlagPublic | DIFlagPrototyped, isOptimized: false)
!1307 = !DISubroutineType(types: !1308)
!1308 = !{!1276, !1277}
!1309 = !DISubprogram(name: "remove_prefix", linkageName: "_ZNSt3__117basic_string_viewIwNS_11char_traitsIwEEE13remove_prefixEm", scope: !1245, file: !360, line: 298, type: !1310, isLocal: false, isDefinition: false, scopeLine: 298, flags: DIFlagPublic | DIFlagPrototyped, isOptimized: false)
!1310 = !DISubroutineType(types: !1311)
!1311 = !{null, !1256, !364}
!1312 = !DISubprogram(name: "remove_suffix", linkageName: "_ZNSt3__117basic_string_viewIwNS_11char_traitsIwEEE13remove_suffixEm", scope: !1245, file: !360, line: 306, type: !1310, isLocal: false, isDefinition: false, scopeLine: 306, flags: DIFlagPublic | DIFlagPrototyped, isOptimized: false)
!1313 = !DISubprogram(name: "swap", linkageName: "_ZNSt3__117basic_string_viewIwNS_11char_traitsIwEEE4swapERS3_", scope: !1245, file: !360, line: 313, type: !1314, isLocal: false, isDefinition: false, scopeLine: 313, flags: DIFlagPublic | DIFlagPrototyped, isOptimized: false)
!1314 = !DISubroutineType(types: !1315)
!1315 = !{null, !1256, !1265}
!1316 = !DISubprogram(name: "copy", linkageName: "_ZNKSt3__117basic_string_viewIwNS_11char_traitsIwEEE4copyEPwmm", scope: !1245, file: !360, line: 325, type: !1317, isLocal: false, isDefinition: false, scopeLine: 325, flags: DIFlagPublic | DIFlagPrototyped, isOptimized: false)
!1317 = !DISubroutineType(types: !1318)
!1318 = !{!1319, !1277, !1001, !364, !364}
!1319 = !DIDerivedType(tag: DW_TAG_typedef, name: "size_type", scope: !1245, file: !360, line: 200, baseType: !81)
!1320 = !DISubprogram(name: "substr", linkageName: "_ZNKSt3__117basic_string_viewIwNS_11char_traitsIwEEE6substrEmm", scope: !1245, file: !360, line: 335, type: !1321, isLocal: false, isDefinition: false, scopeLine: 335, flags: DIFlagPublic | DIFlagPrototyped, isOptimized: false)
!1321 = !DISubroutineType(types: !1322)
!1322 = !{!1245, !1277, !364, !364}
!1323 = !DISubprogram(name: "compare", linkageName: "_ZNKSt3__117basic_string_viewIwNS_11char_traitsIwEEE7compareES3_", scope: !1245, file: !360, line: 342, type: !1324, isLocal: false, isDefinition: false, scopeLine: 342, flags: DIFlagPublic | DIFlagPrototyped, isOptimized: false)
!1324 = !DISubroutineType(types: !1325)
!1325 = !{!14, !1277, !1245}
!1326 = !DISubprogram(name: "compare", linkageName: "_ZNKSt3__117basic_string_viewIwNS_11char_traitsIwEEE7compareEmmS3_", scope: !1245, file: !360, line: 352, type: !1327, isLocal: false, isDefinition: false, scopeLine: 352, flags: DIFlagPublic | DIFlagPrototyped, isOptimized: false)
!1327 = !DISubroutineType(types: !1328)
!1328 = !{!14, !1277, !364, !364, !1245}
!1329 = !DISubprogram(name: "compare", linkageName: "_ZNKSt3__117basic_string_viewIwNS_11char_traitsIwEEE7compareEmmS3_mm", scope: !1245, file: !360, line: 358, type: !1330, isLocal: false, isDefinition: false, scopeLine: 358, flags: DIFlagPublic | DIFlagPrototyped, isOptimized: false)
!1330 = !DISubroutineType(types: !1331)
!1331 = !{!14, !1277, !364, !364, !1245, !364, !364}
!1332 = !DISubprogram(name: "compare", linkageName: "_ZNKSt3__117basic_string_viewIwNS_11char_traitsIwEEE7compareEPKw", scope: !1245, file: !360, line: 365, type: !1333, isLocal: false, isDefinition: false, scopeLine: 365, flags: DIFlagPublic | DIFlagPrototyped, isOptimized: false)
!1333 = !DISubroutineType(types: !1334)
!1334 = !{!14, !1277, !1010}
!1335 = !DISubprogram(name: "compare", linkageName: "_ZNKSt3__117basic_string_viewIwNS_11char_traitsIwEEE7compareEmmPKw", scope: !1245, file: !360, line: 371, type: !1336, isLocal: false, isDefinition: false, scopeLine: 371, flags: DIFlagPublic | DIFlagPrototyped, isOptimized: false)
!1336 = !DISubroutineType(types: !1337)
!1337 = !{!14, !1277, !364, !364, !1010}
!1338 = !DISubprogram(name: "compare", linkageName: "_ZNKSt3__117basic_string_viewIwNS_11char_traitsIwEEE7compareEmmPKwm", scope: !1245, file: !360, line: 377, type: !1339, isLocal: false, isDefinition: false, scopeLine: 377, flags: DIFlagPublic | DIFlagPrototyped, isOptimized: false)
!1339 = !DISubroutineType(types: !1340)
!1340 = !{!14, !1277, !364, !364, !1010, !364}
!1341 = !DISubprogram(name: "find", linkageName: "_ZNKSt3__117basic_string_viewIwNS_11char_traitsIwEEE4findES3_m", scope: !1245, file: !360, line: 384, type: !1342, isLocal: false, isDefinition: false, scopeLine: 384, flags: DIFlagPublic | DIFlagPrototyped, isOptimized: false)
!1342 = !DISubroutineType(types: !1343)
!1343 = !{!1319, !1277, !1245, !364}
!1344 = !DISubprogram(name: "find", linkageName: "_ZNKSt3__117basic_string_viewIwNS_11char_traitsIwEEE4findEwm", scope: !1245, file: !360, line: 392, type: !1345, isLocal: false, isDefinition: false, scopeLine: 392, flags: DIFlagPublic | DIFlagPrototyped, isOptimized: false)
!1345 = !DISubroutineType(types: !1346)
!1346 = !{!1319, !1277, !989, !364}
!1347 = !DISubprogram(name: "find", linkageName: "_ZNKSt3__117basic_string_viewIwNS_11char_traitsIwEEE4findEPKwmm", scope: !1245, file: !360, line: 399, type: !1348, isLocal: false, isDefinition: false, scopeLine: 399, flags: DIFlagPublic | DIFlagPrototyped, isOptimized: false)
!1348 = !DISubroutineType(types: !1349)
!1349 = !{!1319, !1277, !1010, !364, !364}
!1350 = !DISubprogram(name: "find", linkageName: "_ZNKSt3__117basic_string_viewIwNS_11char_traitsIwEEE4findEPKwm", scope: !1245, file: !360, line: 407, type: !1351, isLocal: false, isDefinition: false, scopeLine: 407, flags: DIFlagPublic | DIFlagPrototyped, isOptimized: false)
!1351 = !DISubroutineType(types: !1352)
!1352 = !{!1319, !1277, !1010, !364}
!1353 = !DISubprogram(name: "rfind", linkageName: "_ZNKSt3__117basic_string_viewIwNS_11char_traitsIwEEE5rfindES3_m", scope: !1245, file: !360, line: 416, type: !1342, isLocal: false, isDefinition: false, scopeLine: 416, flags: DIFlagPublic | DIFlagPrototyped, isOptimized: false)
!1354 = !DISubprogram(name: "rfind", linkageName: "_ZNKSt3__117basic_string_viewIwNS_11char_traitsIwEEE5rfindEwm", scope: !1245, file: !360, line: 424, type: !1345, isLocal: false, isDefinition: false, scopeLine: 424, flags: DIFlagPublic | DIFlagPrototyped, isOptimized: false)
!1355 = !DISubprogram(name: "rfind", linkageName: "_ZNKSt3__117basic_string_viewIwNS_11char_traitsIwEEE5rfindEPKwmm", scope: !1245, file: !360, line: 431, type: !1348, isLocal: false, isDefinition: false, scopeLine: 431, flags: DIFlagPublic | DIFlagPrototyped, isOptimized: false)
!1356 = !DISubprogram(name: "rfind", linkageName: "_ZNKSt3__117basic_string_viewIwNS_11char_traitsIwEEE5rfindEPKwm", scope: !1245, file: !360, line: 439, type: !1351, isLocal: false, isDefinition: false, scopeLine: 439, flags: DIFlagPublic | DIFlagPrototyped, isOptimized: false)
!1357 = !DISubprogram(name: "find_first_of", linkageName: "_ZNKSt3__117basic_string_viewIwNS_11char_traitsIwEEE13find_first_ofES3_m", scope: !1245, file: !360, line: 448, type: !1342, isLocal: false, isDefinition: false, scopeLine: 448, flags: DIFlagPublic | DIFlagPrototyped, isOptimized: false)
!1358 = !DISubprogram(name: "find_first_of", linkageName: "_ZNKSt3__117basic_string_viewIwNS_11char_traitsIwEEE13find_first_ofEwm", scope: !1245, file: !360, line: 456, type: !1345, isLocal: false, isDefinition: false, scopeLine: 456, flags: DIFlagPublic | DIFlagPrototyped, isOptimized: false)
!1359 = !DISubprogram(name: "find_first_of", linkageName: "_ZNKSt3__117basic_string_viewIwNS_11char_traitsIwEEE13find_first_ofEPKwmm", scope: !1245, file: !360, line: 460, type: !1348, isLocal: false, isDefinition: false, scopeLine: 460, flags: DIFlagPublic | DIFlagPrototyped, isOptimized: false)
!1360 = !DISubprogram(name: "find_first_of", linkageName: "_ZNKSt3__117basic_string_viewIwNS_11char_traitsIwEEE13find_first_ofEPKwm", scope: !1245, file: !360, line: 468, type: !1351, isLocal: false, isDefinition: false, scopeLine: 468, flags: DIFlagPublic | DIFlagPrototyped, isOptimized: false)
!1361 = !DISubprogram(name: "find_last_of", linkageName: "_ZNKSt3__117basic_string_viewIwNS_11char_traitsIwEEE12find_last_ofES3_m", scope: !1245, file: !360, line: 477, type: !1342, isLocal: false, isDefinition: false, scopeLine: 477, flags: DIFlagPublic | DIFlagPrototyped, isOptimized: false)
!1362 = !DISubprogram(name: "find_last_of", linkageName: "_ZNKSt3__117basic_string_viewIwNS_11char_traitsIwEEE12find_last_ofEwm", scope: !1245, file: !360, line: 485, type: !1345, isLocal: false, isDefinition: false, scopeLine: 485, flags: DIFlagPublic | DIFlagPrototyped, isOptimized: false)
!1363 = !DISubprogram(name: "find_last_of", linkageName: "_ZNKSt3__117basic_string_viewIwNS_11char_traitsIwEEE12find_last_ofEPKwmm", scope: !1245, file: !360, line: 489, type: !1348, isLocal: false, isDefinition: false, scopeLine: 489, flags: DIFlagPublic | DIFlagPrototyped, isOptimized: false)
!1364 = !DISubprogram(name: "find_last_of", linkageName: "_ZNKSt3__117basic_string_viewIwNS_11char_traitsIwEEE12find_last_ofEPKwm", scope: !1245, file: !360, line: 497, type: !1351, isLocal: false, isDefinition: false, scopeLine: 497, flags: DIFlagPublic | DIFlagPrototyped, isOptimized: false)
!1365 = !DISubprogram(name: "find_first_not_of", linkageName: "_ZNKSt3__117basic_string_viewIwNS_11char_traitsIwEEE17find_first_not_ofES3_m", scope: !1245, file: !360, line: 506, type: !1342, isLocal: false, isDefinition: false, scopeLine: 506, flags: DIFlagPublic | DIFlagPrototyped, isOptimized: false)
!1366 = !DISubprogram(name: "find_first_not_of", linkageName: "_ZNKSt3__117basic_string_viewIwNS_11char_traitsIwEEE17find_first_not_ofEwm", scope: !1245, file: !360, line: 514, type: !1345, isLocal: false, isDefinition: false, scopeLine: 514, flags: DIFlagPublic | DIFlagPrototyped, isOptimized: false)
!1367 = !DISubprogram(name: "find_first_not_of", linkageName: "_ZNKSt3__117basic_string_viewIwNS_11char_traitsIwEEE17find_first_not_ofEPKwmm", scope: !1245, file: !360, line: 521, type: !1348, isLocal: false, isDefinition: false, scopeLine: 521, flags: DIFlagPublic | DIFlagPrototyped, isOptimized: false)
!1368 = !DISubprogram(name: "find_first_not_of", linkageName: "_ZNKSt3__117basic_string_viewIwNS_11char_traitsIwEEE17find_first_not_ofEPKwm", scope: !1245, file: !360, line: 529, type: !1351, isLocal: false, isDefinition: false, scopeLine: 529, flags: DIFlagPublic | DIFlagPrototyped, isOptimized: false)
!1369 = !DISubprogram(name: "find_last_not_of", linkageName: "_ZNKSt3__117basic_string_viewIwNS_11char_traitsIwEEE16find_last_not_ofES3_m", scope: !1245, file: !360, line: 538, type: !1342, isLocal: false, isDefinition: false, scopeLine: 538, flags: DIFlagPublic | DIFlagPrototyped, isOptimized: false)
!1370 = !DISubprogram(name: "find_last_not_of", linkageName: "_ZNKSt3__117basic_string_viewIwNS_11char_traitsIwEEE16find_last_not_ofEwm", scope: !1245, file: !360, line: 546, type: !1345, isLocal: false, isDefinition: false, scopeLine: 546, flags: DIFlagPublic | DIFlagPrototyped, isOptimized: false)
!1371 = !DISubprogram(name: "find_last_not_of", linkageName: "_ZNKSt3__117basic_string_viewIwNS_11char_traitsIwEEE16find_last_not_ofEPKwmm", scope: !1245, file: !360, line: 553, type: !1348, isLocal: false, isDefinition: false, scopeLine: 553, flags: DIFlagPublic | DIFlagPrototyped, isOptimized: false)
!1372 = !DISubprogram(name: "find_last_not_of", linkageName: "_ZNKSt3__117basic_string_viewIwNS_11char_traitsIwEEE16find_last_not_ofEPKwm", scope: !1245, file: !360, line: 561, type: !1351, isLocal: false, isDefinition: false, scopeLine: 561, flags: DIFlagPublic | DIFlagPrototyped, isOptimized: false)
!1373 = !{!1374, !1375}
!1374 = !DITemplateTypeParameter(name: "_CharT", type: !989)
!1375 = !DITemplateTypeParameter(name: "_Traits", type: !1376)
!1376 = distinct !DICompositeType(tag: DW_TAG_structure_type, name: "char_traits<wchar_t>", scope: !22, file: !495, line: 289, size: 8, elements: !1377, templateParams: !1426, identifier: "_ZTSNSt3__111char_traitsIwEE")
!1377 = !{!1378, !1385, !1388, !1389, !1393, !1396, !1399, !1403, !1404, !1407, !1414, !1417, !1420, !1423}
!1378 = !DISubprogram(name: "assign", linkageName: "_ZNSt3__111char_traitsIwE6assignERwRKw", scope: !1376, file: !495, line: 298, type: !1379, isLocal: false, isDefinition: false, scopeLine: 298, flags: DIFlagPrototyped, isOptimized: false)
!1379 = !DISubroutineType(types: !1380)
!1380 = !{null, !1381, !1383}
!1381 = !DIDerivedType(tag: DW_TAG_reference_type, baseType: !1382, size: 64)
!1382 = !DIDerivedType(tag: DW_TAG_typedef, name: "char_type", scope: !1376, file: !495, line: 291, baseType: !989)
!1383 = !DIDerivedType(tag: DW_TAG_reference_type, baseType: !1384, size: 64)
!1384 = !DIDerivedType(tag: DW_TAG_const_type, baseType: !1382)
!1385 = !DISubprogram(name: "eq", linkageName: "_ZNSt3__111char_traitsIwE2eqEww", scope: !1376, file: !495, line: 299, type: !1386, isLocal: false, isDefinition: false, scopeLine: 299, flags: DIFlagPrototyped, isOptimized: false)
!1386 = !DISubroutineType(types: !1387)
!1387 = !{!38, !1382, !1382}
!1388 = !DISubprogram(name: "lt", linkageName: "_ZNSt3__111char_traitsIwE2ltEww", scope: !1376, file: !495, line: 301, type: !1386, isLocal: false, isDefinition: false, scopeLine: 301, flags: DIFlagPrototyped, isOptimized: false)
!1389 = !DISubprogram(name: "compare", linkageName: "_ZNSt3__111char_traitsIwE7compareEPKwS3_m", scope: !1376, file: !495, line: 305, type: !1390, isLocal: false, isDefinition: false, scopeLine: 305, flags: DIFlagPrototyped, isOptimized: false)
!1390 = !DISubroutineType(types: !1391)
!1391 = !{!14, !1392, !1392, !81}
!1392 = !DIDerivedType(tag: DW_TAG_pointer_type, baseType: !1384, size: 64)
!1393 = !DISubprogram(name: "length", linkageName: "_ZNSt3__111char_traitsIwE6lengthEPKw", scope: !1376, file: !495, line: 307, type: !1394, isLocal: false, isDefinition: false, scopeLine: 307, flags: DIFlagPrototyped, isOptimized: false)
!1394 = !DISubroutineType(types: !1395)
!1395 = !{!81, !1392}
!1396 = !DISubprogram(name: "find", linkageName: "_ZNSt3__111char_traitsIwE4findEPKwmRS2_", scope: !1376, file: !495, line: 309, type: !1397, isLocal: false, isDefinition: false, scopeLine: 309, flags: DIFlagPrototyped, isOptimized: false)
!1397 = !DISubroutineType(types: !1398)
!1398 = !{!1392, !1392, !81, !1383}
!1399 = !DISubprogram(name: "move", linkageName: "_ZNSt3__111char_traitsIwE4moveEPwPKwm", scope: !1376, file: !495, line: 310, type: !1400, isLocal: false, isDefinition: false, scopeLine: 310, flags: DIFlagPrototyped, isOptimized: false)
!1400 = !DISubroutineType(types: !1401)
!1401 = !{!1402, !1402, !1392, !81}
!1402 = !DIDerivedType(tag: DW_TAG_pointer_type, baseType: !1382, size: 64)
!1403 = !DISubprogram(name: "copy", linkageName: "_ZNSt3__111char_traitsIwE4copyEPwPKwm", scope: !1376, file: !495, line: 312, type: !1400, isLocal: false, isDefinition: false, scopeLine: 312, flags: DIFlagPrototyped, isOptimized: false)
!1404 = !DISubprogram(name: "assign", linkageName: "_ZNSt3__111char_traitsIwE6assignEPwmw", scope: !1376, file: !495, line: 317, type: !1405, isLocal: false, isDefinition: false, scopeLine: 317, flags: DIFlagPrototyped, isOptimized: false)
!1405 = !DISubroutineType(types: !1406)
!1406 = !{!1402, !1402, !81, !1382}
!1407 = !DISubprogram(name: "not_eof", linkageName: "_ZNSt3__111char_traitsIwE7not_eofEi", scope: !1376, file: !495, line: 320, type: !1408, isLocal: false, isDefinition: false, scopeLine: 320, flags: DIFlagPrototyped, isOptimized: false)
!1408 = !DISubroutineType(types: !1409)
!1409 = !{!1410, !1410}
!1410 = !DIDerivedType(tag: DW_TAG_typedef, name: "int_type", scope: !1376, file: !495, line: 292, baseType: !1411)
!1411 = !DIDerivedType(tag: DW_TAG_typedef, name: "wint_t", file: !1412, line: 32, baseType: !1413)
!1412 = !DIFile(filename: "/Applications/Xcode.app/Contents/Developer/Platforms/MacOSX.platform/Developer/SDKs/MacOSX10.13.sdk/usr/include/sys/_types/_wint_t.h", directory: "/Users/ejiang/Projects/lls/ac/llfiles")
!1413 = !DIDerivedType(tag: DW_TAG_typedef, name: "__darwin_wint_t", file: !84, line: 112, baseType: !14)
!1414 = !DISubprogram(name: "to_char_type", linkageName: "_ZNSt3__111char_traitsIwE12to_char_typeEi", scope: !1376, file: !495, line: 322, type: !1415, isLocal: false, isDefinition: false, scopeLine: 322, flags: DIFlagPrototyped, isOptimized: false)
!1415 = !DISubroutineType(types: !1416)
!1416 = !{!1382, !1410}
!1417 = !DISubprogram(name: "to_int_type", linkageName: "_ZNSt3__111char_traitsIwE11to_int_typeEw", scope: !1376, file: !495, line: 324, type: !1418, isLocal: false, isDefinition: false, scopeLine: 324, flags: DIFlagPrototyped, isOptimized: false)
!1418 = !DISubroutineType(types: !1419)
!1419 = !{!1410, !1382}
!1420 = !DISubprogram(name: "eq_int_type", linkageName: "_ZNSt3__111char_traitsIwE11eq_int_typeEii", scope: !1376, file: !495, line: 326, type: !1421, isLocal: false, isDefinition: false, scopeLine: 326, flags: DIFlagPrototyped, isOptimized: false)
!1421 = !DISubroutineType(types: !1422)
!1422 = !{!38, !1410, !1410}
!1423 = !DISubprogram(name: "eof", linkageName: "_ZNSt3__111char_traitsIwE3eofEv", scope: !1376, file: !495, line: 328, type: !1424, isLocal: false, isDefinition: false, scopeLine: 328, flags: DIFlagPrototyped, isOptimized: false)
!1424 = !DISubroutineType(types: !1425)
!1425 = !{!1410}
!1426 = !{!1374}
!1427 = !DISubprogram(name: "basic_string", scope: !972, file: !25, line: 799, type: !1428, isLocal: false, isDefinition: false, scopeLine: 799, flags: DIFlagPublic | DIFlagPrototyped, isOptimized: false)
!1428 = !DISubroutineType(types: !1429)
!1429 = !{null, !1195, !1244, !1164}
!1430 = !DISubprogram(name: "basic_string", scope: !972, file: !25, line: 808, type: !1431, isLocal: false, isDefinition: false, scopeLine: 808, flags: DIFlagPublic | DIFlagPrototyped, isOptimized: false)
!1431 = !DISubroutineType(types: !1432)
!1432 = !{null, !1195, !1433}
!1433 = distinct !DICompositeType(tag: DW_TAG_class_type, name: "initializer_list<wchar_t>", scope: !23, file: !550, line: 59, size: 128, elements: !1434, templateParams: !1453, identifier: "_ZTSSt16initializer_listIwE")
!1434 = !{!1435, !1436, !1437, !1441, !1444, !1449, !1452}
!1435 = !DIDerivedType(tag: DW_TAG_member, name: "__begin_", scope: !1433, file: !550, line: 61, baseType: !1010, size: 64)
!1436 = !DIDerivedType(tag: DW_TAG_member, name: "__size_", scope: !1433, file: !550, line: 62, baseType: !81, size: 64, offset: 64)
!1437 = !DISubprogram(name: "initializer_list", scope: !1433, file: !550, line: 66, type: !1438, isLocal: false, isDefinition: false, scopeLine: 66, flags: DIFlagPrototyped, isOptimized: false)
!1438 = !DISubroutineType(types: !1439)
!1439 = !{null, !1440, !1010, !81}
!1440 = !DIDerivedType(tag: DW_TAG_pointer_type, baseType: !1433, size: 64, flags: DIFlagArtificial | DIFlagObjectPointer)
!1441 = !DISubprogram(name: "initializer_list", scope: !1433, file: !550, line: 81, type: !1442, isLocal: false, isDefinition: false, scopeLine: 81, flags: DIFlagPublic | DIFlagPrototyped, isOptimized: false)
!1442 = !DISubroutineType(types: !1443)
!1443 = !{null, !1440}
!1444 = !DISubprogram(name: "size", linkageName: "_ZNKSt16initializer_listIwE4sizeEv", scope: !1433, file: !550, line: 85, type: !1445, isLocal: false, isDefinition: false, scopeLine: 85, flags: DIFlagPublic | DIFlagPrototyped, isOptimized: false)
!1445 = !DISubroutineType(types: !1446)
!1446 = !{!81, !1447}
!1447 = !DIDerivedType(tag: DW_TAG_pointer_type, baseType: !1448, size: 64, flags: DIFlagArtificial | DIFlagObjectPointer)
!1448 = !DIDerivedType(tag: DW_TAG_const_type, baseType: !1433)
!1449 = !DISubprogram(name: "begin", linkageName: "_ZNKSt16initializer_listIwE5beginEv", scope: !1433, file: !550, line: 89, type: !1450, isLocal: false, isDefinition: false, scopeLine: 89, flags: DIFlagPublic | DIFlagPrototyped, isOptimized: false)
!1450 = !DISubroutineType(types: !1451)
!1451 = !{!1010, !1447}
!1452 = !DISubprogram(name: "end", linkageName: "_ZNKSt16initializer_listIwE3endEv", scope: !1433, file: !550, line: 93, type: !1450, isLocal: false, isDefinition: false, scopeLine: 93, flags: DIFlagPublic | DIFlagPrototyped, isOptimized: false)
!1453 = !{!1454}
!1454 = !DITemplateTypeParameter(name: "_Ep", type: !989)
!1455 = !DISubprogram(name: "basic_string", scope: !972, file: !25, line: 810, type: !1456, isLocal: false, isDefinition: false, scopeLine: 810, flags: DIFlagPublic | DIFlagPrototyped, isOptimized: false)
!1456 = !DISubroutineType(types: !1457)
!1457 = !{null, !1195, !1433, !1164}
!1458 = !DISubprogram(name: "~basic_string", scope: !972, file: !25, line: 813, type: !1193, isLocal: false, isDefinition: false, scopeLine: 813, flags: DIFlagPublic | DIFlagPrototyped, isOptimized: false)
!1459 = !DISubprogram(name: "operator basic_string_view", linkageName: "_ZNKSt3__112basic_stringIwNS_11char_traitsIwEENS_9allocatorIwEEEcvNS_17basic_string_viewIwS2_EEEv", scope: !972, file: !25, line: 816, type: !1460, isLocal: false, isDefinition: false, scopeLine: 816, flags: DIFlagPublic | DIFlagPrototyped, isOptimized: false)
!1460 = !DISubroutineType(types: !1461)
!1461 = !{!1244, !1462}
!1462 = !DIDerivedType(tag: DW_TAG_pointer_type, baseType: !1206, size: 64, flags: DIFlagArtificial | DIFlagObjectPointer)
!1463 = !DISubprogram(name: "operator=", linkageName: "_ZNSt3__112basic_stringIwNS_11char_traitsIwEENS_9allocatorIwEEEaSERKS5_", scope: !972, file: !25, line: 818, type: !1464, isLocal: false, isDefinition: false, scopeLine: 818, flags: DIFlagPublic | DIFlagPrototyped, isOptimized: false)
!1464 = !DISubroutineType(types: !1465)
!1465 = !{!1466, !1195, !1205}
!1466 = !DIDerivedType(tag: DW_TAG_reference_type, baseType: !972, size: 64)
!1467 = !DISubprogram(name: "operator=", linkageName: "_ZNSt3__112basic_stringIwNS_11char_traitsIwEENS_9allocatorIwEEEaSEOS5_", scope: !972, file: !25, line: 827, type: !1468, isLocal: false, isDefinition: false, scopeLine: 827, flags: DIFlagPublic | DIFlagPrototyped, isOptimized: false)
!1468 = !DISubroutineType(types: !1469)
!1469 = !{!1466, !1195, !1213}
!1470 = !DISubprogram(name: "operator=", linkageName: "_ZNSt3__112basic_stringIwNS_11char_traitsIwEENS_9allocatorIwEEEaSESt16initializer_listIwE", scope: !972, file: !25, line: 830, type: !1471, isLocal: false, isDefinition: false, scopeLine: 830, flags: DIFlagPublic | DIFlagPrototyped, isOptimized: false)
!1471 = !DISubroutineType(types: !1472)
!1472 = !{!1466, !1195, !1433}
!1473 = !DISubprogram(name: "operator=", linkageName: "_ZNSt3__112basic_stringIwNS_11char_traitsIwEENS_9allocatorIwEEEaSEPKw", scope: !972, file: !25, line: 832, type: !1474, isLocal: false, isDefinition: false, scopeLine: 832, flags: DIFlagPublic | DIFlagPrototyped, isOptimized: false)
!1474 = !DISubroutineType(types: !1475)
!1475 = !{!1466, !1195, !1476}
!1476 = !DIDerivedType(tag: DW_TAG_pointer_type, baseType: !1477, size: 64)
!1477 = !DIDerivedType(tag: DW_TAG_const_type, baseType: !1118)
!1478 = !DISubprogram(name: "operator=", linkageName: "_ZNSt3__112basic_stringIwNS_11char_traitsIwEENS_9allocatorIwEEEaSEw", scope: !972, file: !25, line: 833, type: !1479, isLocal: false, isDefinition: false, scopeLine: 833, flags: DIFlagPublic | DIFlagPrototyped, isOptimized: false)
!1479 = !DISubroutineType(types: !1480)
!1480 = !{!1466, !1195, !1118}
!1481 = !DISubprogram(name: "begin", linkageName: "_ZNSt3__112basic_stringIwNS_11char_traitsIwEENS_9allocatorIwEEE5beginEv", scope: !972, file: !25, line: 850, type: !1482, isLocal: false, isDefinition: false, scopeLine: 850, flags: DIFlagPublic | DIFlagPrototyped, isOptimized: false)
!1482 = !DISubroutineType(types: !1483)
!1483 = !{!1484, !1195}
!1484 = !DIDerivedType(tag: DW_TAG_typedef, name: "iterator", scope: !972, file: !25, line: 656, baseType: !1485)
!1485 = !DICompositeType(tag: DW_TAG_class_type, name: "__wrap_iter<wchar_t *>", scope: !22, file: !403, line: 1279, flags: DIFlagFwdDecl, identifier: "_ZTSNSt3__111__wrap_iterIPwEE")
!1486 = !DISubprogram(name: "begin", linkageName: "_ZNKSt3__112basic_stringIwNS_11char_traitsIwEENS_9allocatorIwEEE5beginEv", scope: !972, file: !25, line: 853, type: !1487, isLocal: false, isDefinition: false, scopeLine: 853, flags: DIFlagPublic | DIFlagPrototyped, isOptimized: false)
!1487 = !DISubroutineType(types: !1488)
!1488 = !{!1489, !1462}
!1489 = !DIDerivedType(tag: DW_TAG_typedef, name: "const_iterator", scope: !972, file: !25, line: 657, baseType: !1490)
!1490 = !DICompositeType(tag: DW_TAG_class_type, name: "__wrap_iter<const wchar_t *>", scope: !22, file: !403, line: 1279, flags: DIFlagFwdDecl, identifier: "_ZTSNSt3__111__wrap_iterIPKwEE")
!1491 = !DISubprogram(name: "end", linkageName: "_ZNSt3__112basic_stringIwNS_11char_traitsIwEENS_9allocatorIwEEE3endEv", scope: !972, file: !25, line: 856, type: !1482, isLocal: false, isDefinition: false, scopeLine: 856, flags: DIFlagPublic | DIFlagPrototyped, isOptimized: false)
!1492 = !DISubprogram(name: "end", linkageName: "_ZNKSt3__112basic_stringIwNS_11char_traitsIwEENS_9allocatorIwEEE3endEv", scope: !972, file: !25, line: 859, type: !1487, isLocal: false, isDefinition: false, scopeLine: 859, flags: DIFlagPublic | DIFlagPrototyped, isOptimized: false)
!1493 = !DISubprogram(name: "rbegin", linkageName: "_ZNSt3__112basic_stringIwNS_11char_traitsIwEENS_9allocatorIwEEE6rbeginEv", scope: !972, file: !25, line: 863, type: !1494, isLocal: false, isDefinition: false, scopeLine: 863, flags: DIFlagPublic | DIFlagPrototyped, isOptimized: false)
!1494 = !DISubroutineType(types: !1495)
!1495 = !{!1496, !1195}
!1496 = !DIDerivedType(tag: DW_TAG_typedef, name: "reverse_iterator", scope: !972, file: !25, line: 659, baseType: !1497)
!1497 = !DICompositeType(tag: DW_TAG_class_type, name: "reverse_iterator<std::__1::__wrap_iter<wchar_t *> >", scope: !22, file: !403, line: 636, flags: DIFlagFwdDecl, identifier: "_ZTSNSt3__116reverse_iteratorINS_11__wrap_iterIPwEEEE")
!1498 = !DISubprogram(name: "rbegin", linkageName: "_ZNKSt3__112basic_stringIwNS_11char_traitsIwEENS_9allocatorIwEEE6rbeginEv", scope: !972, file: !25, line: 866, type: !1499, isLocal: false, isDefinition: false, scopeLine: 866, flags: DIFlagPublic | DIFlagPrototyped, isOptimized: false)
!1499 = !DISubroutineType(types: !1500)
!1500 = !{!1501, !1462}
!1501 = !DIDerivedType(tag: DW_TAG_typedef, name: "const_reverse_iterator", scope: !972, file: !25, line: 660, baseType: !1502)
!1502 = !DICompositeType(tag: DW_TAG_class_type, name: "reverse_iterator<std::__1::__wrap_iter<const wchar_t *> >", scope: !22, file: !403, line: 636, flags: DIFlagFwdDecl, identifier: "_ZTSNSt3__116reverse_iteratorINS_11__wrap_iterIPKwEEEE")
!1503 = !DISubprogram(name: "rend", linkageName: "_ZNSt3__112basic_stringIwNS_11char_traitsIwEENS_9allocatorIwEEE4rendEv", scope: !972, file: !25, line: 869, type: !1494, isLocal: false, isDefinition: false, scopeLine: 869, flags: DIFlagPublic | DIFlagPrototyped, isOptimized: false)
!1504 = !DISubprogram(name: "rend", linkageName: "_ZNKSt3__112basic_stringIwNS_11char_traitsIwEENS_9allocatorIwEEE4rendEv", scope: !972, file: !25, line: 872, type: !1499, isLocal: false, isDefinition: false, scopeLine: 872, flags: DIFlagPublic | DIFlagPrototyped, isOptimized: false)
!1505 = !DISubprogram(name: "cbegin", linkageName: "_ZNKSt3__112basic_stringIwNS_11char_traitsIwEENS_9allocatorIwEEE6cbeginEv", scope: !972, file: !25, line: 876, type: !1487, isLocal: false, isDefinition: false, scopeLine: 876, flags: DIFlagPublic | DIFlagPrototyped, isOptimized: false)
!1506 = !DISubprogram(name: "cend", linkageName: "_ZNKSt3__112basic_stringIwNS_11char_traitsIwEENS_9allocatorIwEEE4cendEv", scope: !972, file: !25, line: 879, type: !1487, isLocal: false, isDefinition: false, scopeLine: 879, flags: DIFlagPublic | DIFlagPrototyped, isOptimized: false)
!1507 = !DISubprogram(name: "crbegin", linkageName: "_ZNKSt3__112basic_stringIwNS_11char_traitsIwEENS_9allocatorIwEEE7crbeginEv", scope: !972, file: !25, line: 882, type: !1499, isLocal: false, isDefinition: false, scopeLine: 882, flags: DIFlagPublic | DIFlagPrototyped, isOptimized: false)
!1508 = !DISubprogram(name: "crend", linkageName: "_ZNKSt3__112basic_stringIwNS_11char_traitsIwEENS_9allocatorIwEEE5crendEv", scope: !972, file: !25, line: 885, type: !1499, isLocal: false, isDefinition: false, scopeLine: 885, flags: DIFlagPublic | DIFlagPrototyped, isOptimized: false)
!1509 = !DISubprogram(name: "size", linkageName: "_ZNKSt3__112basic_stringIwNS_11char_traitsIwEENS_9allocatorIwEEE4sizeEv", scope: !972, file: !25, line: 888, type: !1510, isLocal: false, isDefinition: false, scopeLine: 888, flags: DIFlagPublic | DIFlagPrototyped, isOptimized: false)
!1510 = !DISubroutineType(types: !1511)
!1511 = !{!977, !1462}
!1512 = !DISubprogram(name: "length", linkageName: "_ZNKSt3__112basic_stringIwNS_11char_traitsIwEENS_9allocatorIwEEE6lengthEv", scope: !972, file: !25, line: 890, type: !1510, isLocal: false, isDefinition: false, scopeLine: 890, flags: DIFlagPublic | DIFlagPrototyped, isOptimized: false)
!1513 = !DISubprogram(name: "max_size", linkageName: "_ZNKSt3__112basic_stringIwNS_11char_traitsIwEENS_9allocatorIwEEE8max_sizeEv", scope: !972, file: !25, line: 891, type: !1510, isLocal: false, isDefinition: false, scopeLine: 891, flags: DIFlagPublic | DIFlagPrototyped, isOptimized: false)
!1514 = !DISubprogram(name: "capacity", linkageName: "_ZNKSt3__112basic_stringIwNS_11char_traitsIwEENS_9allocatorIwEEE8capacityEv", scope: !972, file: !25, line: 892, type: !1510, isLocal: false, isDefinition: false, scopeLine: 892, flags: DIFlagPublic | DIFlagPrototyped, isOptimized: false)
!1515 = !DISubprogram(name: "resize", linkageName: "_ZNSt3__112basic_stringIwNS_11char_traitsIwEENS_9allocatorIwEEE6resizeEmw", scope: !972, file: !25, line: 896, type: !1516, isLocal: false, isDefinition: false, scopeLine: 896, flags: DIFlagPublic | DIFlagPrototyped, isOptimized: false)
!1516 = !DISubroutineType(types: !1517)
!1517 = !{null, !1195, !977, !1118}
!1518 = !DISubprogram(name: "resize", linkageName: "_ZNSt3__112basic_stringIwNS_11char_traitsIwEENS_9allocatorIwEEE6resizeEm", scope: !972, file: !25, line: 897, type: !1519, isLocal: false, isDefinition: false, scopeLine: 897, flags: DIFlagPublic | DIFlagPrototyped, isOptimized: false)
!1519 = !DISubroutineType(types: !1520)
!1520 = !{null, !1195, !977}
!1521 = !DISubprogram(name: "reserve", linkageName: "_ZNSt3__112basic_stringIwNS_11char_traitsIwEENS_9allocatorIwEEE7reserveEm", scope: !972, file: !25, line: 899, type: !1519, isLocal: false, isDefinition: false, scopeLine: 899, flags: DIFlagPublic | DIFlagPrototyped, isOptimized: false)
!1522 = !DISubprogram(name: "shrink_to_fit", linkageName: "_ZNSt3__112basic_stringIwNS_11char_traitsIwEENS_9allocatorIwEEE13shrink_to_fitEv", scope: !972, file: !25, line: 901, type: !1193, isLocal: false, isDefinition: false, scopeLine: 901, flags: DIFlagPublic | DIFlagPrototyped, isOptimized: false)
!1523 = !DISubprogram(name: "clear", linkageName: "_ZNSt3__112basic_stringIwNS_11char_traitsIwEENS_9allocatorIwEEE5clearEv", scope: !972, file: !25, line: 903, type: !1193, isLocal: false, isDefinition: false, scopeLine: 903, flags: DIFlagPublic | DIFlagPrototyped, isOptimized: false)
!1524 = !DISubprogram(name: "empty", linkageName: "_ZNKSt3__112basic_stringIwNS_11char_traitsIwEENS_9allocatorIwEEE5emptyEv", scope: !972, file: !25, line: 904, type: !1525, isLocal: false, isDefinition: false, scopeLine: 904, flags: DIFlagPublic | DIFlagPrototyped, isOptimized: false)
!1525 = !DISubroutineType(types: !1526)
!1526 = !{!38, !1462}
!1527 = !DISubprogram(name: "operator[]", linkageName: "_ZNKSt3__112basic_stringIwNS_11char_traitsIwEENS_9allocatorIwEEEixEm", scope: !972, file: !25, line: 906, type: !1528, isLocal: false, isDefinition: false, scopeLine: 906, flags: DIFlagPublic | DIFlagPrototyped, isOptimized: false)
!1528 = !DISubroutineType(types: !1529)
!1529 = !{!1530, !1462, !977}
!1530 = !DIDerivedType(tag: DW_TAG_typedef, name: "const_reference", scope: !972, file: !25, line: 643, baseType: !1531)
!1531 = !DIDerivedType(tag: DW_TAG_reference_type, baseType: !1477, size: 64)
!1532 = !DISubprogram(name: "operator[]", linkageName: "_ZNSt3__112basic_stringIwNS_11char_traitsIwEENS_9allocatorIwEEEixEm", scope: !972, file: !25, line: 907, type: !1533, isLocal: false, isDefinition: false, scopeLine: 907, flags: DIFlagPublic | DIFlagPrototyped, isOptimized: false)
!1533 = !DISubroutineType(types: !1534)
!1534 = !{!1535, !1195, !977}
!1535 = !DIDerivedType(tag: DW_TAG_typedef, name: "reference", scope: !972, file: !25, line: 642, baseType: !1536)
!1536 = !DIDerivedType(tag: DW_TAG_reference_type, baseType: !1118, size: 64)
!1537 = !DISubprogram(name: "at", linkageName: "_ZNKSt3__112basic_stringIwNS_11char_traitsIwEENS_9allocatorIwEEE2atEm", scope: !972, file: !25, line: 909, type: !1528, isLocal: false, isDefinition: false, scopeLine: 909, flags: DIFlagPublic | DIFlagPrototyped, isOptimized: false)
!1538 = !DISubprogram(name: "at", linkageName: "_ZNSt3__112basic_stringIwNS_11char_traitsIwEENS_9allocatorIwEEE2atEm", scope: !972, file: !25, line: 910, type: !1533, isLocal: false, isDefinition: false, scopeLine: 910, flags: DIFlagPublic | DIFlagPrototyped, isOptimized: false)
!1539 = !DISubprogram(name: "operator+=", linkageName: "_ZNSt3__112basic_stringIwNS_11char_traitsIwEENS_9allocatorIwEEEpLERKS5_", scope: !972, file: !25, line: 912, type: !1464, isLocal: false, isDefinition: false, scopeLine: 912, flags: DIFlagPublic | DIFlagPrototyped, isOptimized: false)
!1540 = !DISubprogram(name: "operator+=", linkageName: "_ZNSt3__112basic_stringIwNS_11char_traitsIwEENS_9allocatorIwEEEpLENS_17basic_string_viewIwS2_EE", scope: !972, file: !25, line: 913, type: !1541, isLocal: false, isDefinition: false, scopeLine: 913, flags: DIFlagPublic | DIFlagPrototyped, isOptimized: false)
!1541 = !DISubroutineType(types: !1542)
!1542 = !{!1466, !1195, !1244}
!1543 = !DISubprogram(name: "operator+=", linkageName: "_ZNSt3__112basic_stringIwNS_11char_traitsIwEENS_9allocatorIwEEEpLEPKw", scope: !972, file: !25, line: 914, type: !1474, isLocal: false, isDefinition: false, scopeLine: 914, flags: DIFlagPublic | DIFlagPrototyped, isOptimized: false)
!1544 = !DISubprogram(name: "operator+=", linkageName: "_ZNSt3__112basic_stringIwNS_11char_traitsIwEENS_9allocatorIwEEEpLEw", scope: !972, file: !25, line: 915, type: !1479, isLocal: false, isDefinition: false, scopeLine: 915, flags: DIFlagPublic | DIFlagPrototyped, isOptimized: false)
!1545 = !DISubprogram(name: "operator+=", linkageName: "_ZNSt3__112basic_stringIwNS_11char_traitsIwEENS_9allocatorIwEEEpLESt16initializer_listIwE", scope: !972, file: !25, line: 917, type: !1471, isLocal: false, isDefinition: false, scopeLine: 917, flags: DIFlagPublic | DIFlagPrototyped, isOptimized: false)
!1546 = !DISubprogram(name: "append", linkageName: "_ZNSt3__112basic_stringIwNS_11char_traitsIwEENS_9allocatorIwEEE6appendERKS5_", scope: !972, file: !25, line: 921, type: !1464, isLocal: false, isDefinition: false, scopeLine: 921, flags: DIFlagPublic | DIFlagPrototyped, isOptimized: false)
!1547 = !DISubprogram(name: "append", linkageName: "_ZNSt3__112basic_stringIwNS_11char_traitsIwEENS_9allocatorIwEEE6appendENS_17basic_string_viewIwS2_EE", scope: !972, file: !25, line: 923, type: !1541, isLocal: false, isDefinition: false, scopeLine: 923, flags: DIFlagPublic | DIFlagPrototyped, isOptimized: false)
!1548 = !DISubprogram(name: "append", linkageName: "_ZNSt3__112basic_stringIwNS_11char_traitsIwEENS_9allocatorIwEEE6appendERKS5_mm", scope: !972, file: !25, line: 924, type: !1549, isLocal: false, isDefinition: false, scopeLine: 924, flags: DIFlagPublic | DIFlagPrototyped, isOptimized: false)
!1549 = !DISubroutineType(types: !1550)
!1550 = !{!1466, !1195, !1205, !977, !977}
!1551 = !DISubprogram(name: "append", linkageName: "_ZNSt3__112basic_stringIwNS_11char_traitsIwEENS_9allocatorIwEEE6appendEPKwm", scope: !972, file: !25, line: 933, type: !1552, isLocal: false, isDefinition: false, scopeLine: 933, flags: DIFlagPublic | DIFlagPrototyped, isOptimized: false)
!1552 = !DISubroutineType(types: !1553)
!1553 = !{!1466, !1195, !1476, !977}
!1554 = !DISubprogram(name: "append", linkageName: "_ZNSt3__112basic_stringIwNS_11char_traitsIwEENS_9allocatorIwEEE6appendEPKw", scope: !972, file: !25, line: 934, type: !1474, isLocal: false, isDefinition: false, scopeLine: 934, flags: DIFlagPublic | DIFlagPrototyped, isOptimized: false)
!1555 = !DISubprogram(name: "append", linkageName: "_ZNSt3__112basic_stringIwNS_11char_traitsIwEENS_9allocatorIwEEE6appendEmw", scope: !972, file: !25, line: 935, type: !1556, isLocal: false, isDefinition: false, scopeLine: 935, flags: DIFlagPublic | DIFlagPrototyped, isOptimized: false)
!1556 = !DISubroutineType(types: !1557)
!1557 = !{!1466, !1195, !977, !1118}
!1558 = !DISubprogram(name: "append", linkageName: "_ZNSt3__112basic_stringIwNS_11char_traitsIwEENS_9allocatorIwEEE6appendESt16initializer_listIwE", scope: !972, file: !25, line: 968, type: !1471, isLocal: false, isDefinition: false, scopeLine: 968, flags: DIFlagPublic | DIFlagPrototyped, isOptimized: false)
!1559 = !DISubprogram(name: "push_back", linkageName: "_ZNSt3__112basic_stringIwNS_11char_traitsIwEENS_9allocatorIwEEE9push_backEw", scope: !972, file: !25, line: 971, type: !1560, isLocal: false, isDefinition: false, scopeLine: 971, flags: DIFlagPublic | DIFlagPrototyped, isOptimized: false)
!1560 = !DISubroutineType(types: !1561)
!1561 = !{null, !1195, !1118}
!1562 = !DISubprogram(name: "pop_back", linkageName: "_ZNSt3__112basic_stringIwNS_11char_traitsIwEENS_9allocatorIwEEE8pop_backEv", scope: !972, file: !25, line: 973, type: !1193, isLocal: false, isDefinition: false, scopeLine: 973, flags: DIFlagPublic | DIFlagPrototyped, isOptimized: false)
!1563 = !DISubprogram(name: "front", linkageName: "_ZNSt3__112basic_stringIwNS_11char_traitsIwEENS_9allocatorIwEEE5frontEv", scope: !972, file: !25, line: 974, type: !1564, isLocal: false, isDefinition: false, scopeLine: 974, flags: DIFlagPublic | DIFlagPrototyped, isOptimized: false)
!1564 = !DISubroutineType(types: !1565)
!1565 = !{!1535, !1195}
!1566 = !DISubprogram(name: "front", linkageName: "_ZNKSt3__112basic_stringIwNS_11char_traitsIwEENS_9allocatorIwEEE5frontEv", scope: !972, file: !25, line: 975, type: !1567, isLocal: false, isDefinition: false, scopeLine: 975, flags: DIFlagPublic | DIFlagPrototyped, isOptimized: false)
!1567 = !DISubroutineType(types: !1568)
!1568 = !{!1530, !1462}
!1569 = !DISubprogram(name: "back", linkageName: "_ZNSt3__112basic_stringIwNS_11char_traitsIwEENS_9allocatorIwEEE4backEv", scope: !972, file: !25, line: 976, type: !1564, isLocal: false, isDefinition: false, scopeLine: 976, flags: DIFlagPublic | DIFlagPrototyped, isOptimized: false)
!1570 = !DISubprogram(name: "back", linkageName: "_ZNKSt3__112basic_stringIwNS_11char_traitsIwEENS_9allocatorIwEEE4backEv", scope: !972, file: !25, line: 977, type: !1567, isLocal: false, isDefinition: false, scopeLine: 977, flags: DIFlagPublic | DIFlagPrototyped, isOptimized: false)
!1571 = !DISubprogram(name: "assign", linkageName: "_ZNSt3__112basic_stringIwNS_11char_traitsIwEENS_9allocatorIwEEE6assignENS_17basic_string_viewIwS2_EE", scope: !972, file: !25, line: 980, type: !1541, isLocal: false, isDefinition: false, scopeLine: 980, flags: DIFlagPublic | DIFlagPrototyped, isOptimized: false)
!1572 = !DISubprogram(name: "assign", linkageName: "_ZNSt3__112basic_stringIwNS_11char_traitsIwEENS_9allocatorIwEEE6assignERKS5_", scope: !972, file: !25, line: 982, type: !1464, isLocal: false, isDefinition: false, scopeLine: 982, flags: DIFlagPublic | DIFlagPrototyped, isOptimized: false)
!1573 = !DISubprogram(name: "assign", linkageName: "_ZNSt3__112basic_stringIwNS_11char_traitsIwEENS_9allocatorIwEEE6assignEOS5_", scope: !972, file: !25, line: 985, type: !1468, isLocal: false, isDefinition: false, scopeLine: 985, flags: DIFlagPublic | DIFlagPrototyped, isOptimized: false)
!1574 = !DISubprogram(name: "assign", linkageName: "_ZNSt3__112basic_stringIwNS_11char_traitsIwEENS_9allocatorIwEEE6assignERKS5_mm", scope: !972, file: !25, line: 989, type: !1549, isLocal: false, isDefinition: false, scopeLine: 989, flags: DIFlagPublic | DIFlagPrototyped, isOptimized: false)
!1575 = !DISubprogram(name: "assign", linkageName: "_ZNSt3__112basic_stringIwNS_11char_traitsIwEENS_9allocatorIwEEE6assignEPKwm", scope: !972, file: !25, line: 998, type: !1552, isLocal: false, isDefinition: false, scopeLine: 998, flags: DIFlagPublic | DIFlagPrototyped, isOptimized: false)
!1576 = !DISubprogram(name: "assign", linkageName: "_ZNSt3__112basic_stringIwNS_11char_traitsIwEENS_9allocatorIwEEE6assignEPKw", scope: !972, file: !25, line: 999, type: !1474, isLocal: false, isDefinition: false, scopeLine: 999, flags: DIFlagPublic | DIFlagPrototyped, isOptimized: false)
!1577 = !DISubprogram(name: "assign", linkageName: "_ZNSt3__112basic_stringIwNS_11char_traitsIwEENS_9allocatorIwEEE6assignEmw", scope: !972, file: !25, line: 1000, type: !1556, isLocal: false, isDefinition: false, scopeLine: 1000, flags: DIFlagPublic | DIFlagPrototyped, isOptimized: false)
!1578 = !DISubprogram(name: "assign", linkageName: "_ZNSt3__112basic_stringIwNS_11char_traitsIwEENS_9allocatorIwEEE6assignESt16initializer_listIwE", scope: !972, file: !25, line: 1021, type: !1471, isLocal: false, isDefinition: false, scopeLine: 1021, flags: DIFlagPublic | DIFlagPrototyped, isOptimized: false)
!1579 = !DISubprogram(name: "insert", linkageName: "_ZNSt3__112basic_stringIwNS_11char_traitsIwEENS_9allocatorIwEEE6insertEmRKS5_", scope: !972, file: !25, line: 1025, type: !1580, isLocal: false, isDefinition: false, scopeLine: 1025, flags: DIFlagPublic | DIFlagPrototyped, isOptimized: false)
!1580 = !DISubroutineType(types: !1581)
!1581 = !{!1466, !1195, !977, !1205}
!1582 = !DISubprogram(name: "insert", linkageName: "_ZNSt3__112basic_stringIwNS_11char_traitsIwEENS_9allocatorIwEEE6insertEmNS_17basic_string_viewIwS2_EE", scope: !972, file: !25, line: 1027, type: !1583, isLocal: false, isDefinition: false, scopeLine: 1027, flags: DIFlagPublic | DIFlagPrototyped, isOptimized: false)
!1583 = !DISubroutineType(types: !1584)
!1584 = !{!1466, !1195, !977, !1244}
!1585 = !DISubprogram(name: "insert", linkageName: "_ZNSt3__112basic_stringIwNS_11char_traitsIwEENS_9allocatorIwEEE6insertEmRKS5_mm", scope: !972, file: !25, line: 1036, type: !1586, isLocal: false, isDefinition: false, scopeLine: 1036, flags: DIFlagPublic | DIFlagPrototyped, isOptimized: false)
!1586 = !DISubroutineType(types: !1587)
!1587 = !{!1466, !1195, !977, !1205, !977, !977}
!1588 = !DISubprogram(name: "insert", linkageName: "_ZNSt3__112basic_stringIwNS_11char_traitsIwEENS_9allocatorIwEEE6insertEmPKwm", scope: !972, file: !25, line: 1037, type: !1589, isLocal: false, isDefinition: false, scopeLine: 1037, flags: DIFlagPublic | DIFlagPrototyped, isOptimized: false)
!1589 = !DISubroutineType(types: !1590)
!1590 = !{!1466, !1195, !977, !1476, !977}
!1591 = !DISubprogram(name: "insert", linkageName: "_ZNSt3__112basic_stringIwNS_11char_traitsIwEENS_9allocatorIwEEE6insertEmPKw", scope: !972, file: !25, line: 1038, type: !1592, isLocal: false, isDefinition: false, scopeLine: 1038, flags: DIFlagPublic | DIFlagPrototyped, isOptimized: false)
!1592 = !DISubroutineType(types: !1593)
!1593 = !{!1466, !1195, !977, !1476}
!1594 = !DISubprogram(name: "insert", linkageName: "_ZNSt3__112basic_stringIwNS_11char_traitsIwEENS_9allocatorIwEEE6insertEmmw", scope: !972, file: !25, line: 1039, type: !1595, isLocal: false, isDefinition: false, scopeLine: 1039, flags: DIFlagPublic | DIFlagPrototyped, isOptimized: false)
!1595 = !DISubroutineType(types: !1596)
!1596 = !{!1466, !1195, !977, !977, !1118}
!1597 = !DISubprogram(name: "insert", linkageName: "_ZNSt3__112basic_stringIwNS_11char_traitsIwEENS_9allocatorIwEEE6insertENS_11__wrap_iterIPKwEEw", scope: !972, file: !25, line: 1040, type: !1598, isLocal: false, isDefinition: false, scopeLine: 1040, flags: DIFlagPublic | DIFlagPrototyped, isOptimized: false)
!1598 = !DISubroutineType(types: !1599)
!1599 = !{!1484, !1195, !1489, !1118}
!1600 = !DISubprogram(name: "insert", linkageName: "_ZNSt3__112basic_stringIwNS_11char_traitsIwEENS_9allocatorIwEEE6insertENS_11__wrap_iterIPKwEEmw", scope: !972, file: !25, line: 1042, type: !1601, isLocal: false, isDefinition: false, scopeLine: 1042, flags: DIFlagPublic | DIFlagPrototyped, isOptimized: false)
!1601 = !DISubroutineType(types: !1602)
!1602 = !{!1484, !1195, !1489, !977, !1118}
!1603 = !DISubprogram(name: "insert", linkageName: "_ZNSt3__112basic_stringIwNS_11char_traitsIwEENS_9allocatorIwEEE6insertENS_11__wrap_iterIPKwEESt16initializer_listIwE", scope: !972, file: !25, line: 1063, type: !1604, isLocal: false, isDefinition: false, scopeLine: 1063, flags: DIFlagPublic | DIFlagPrototyped, isOptimized: false)
!1604 = !DISubroutineType(types: !1605)
!1605 = !{!1484, !1195, !1489, !1433}
!1606 = !DISubprogram(name: "erase", linkageName: "_ZNSt3__112basic_stringIwNS_11char_traitsIwEENS_9allocatorIwEEE5eraseEmm", scope: !972, file: !25, line: 1067, type: !1607, isLocal: false, isDefinition: false, scopeLine: 1067, flags: DIFlagPublic | DIFlagPrototyped, isOptimized: false)
!1607 = !DISubroutineType(types: !1608)
!1608 = !{!1466, !1195, !977, !977}
!1609 = !DISubprogram(name: "erase", linkageName: "_ZNSt3__112basic_stringIwNS_11char_traitsIwEENS_9allocatorIwEEE5eraseENS_11__wrap_iterIPKwEE", scope: !972, file: !25, line: 1069, type: !1610, isLocal: false, isDefinition: false, scopeLine: 1069, flags: DIFlagPublic | DIFlagPrototyped, isOptimized: false)
!1610 = !DISubroutineType(types: !1611)
!1611 = !{!1484, !1195, !1489}
!1612 = !DISubprogram(name: "erase", linkageName: "_ZNSt3__112basic_stringIwNS_11char_traitsIwEENS_9allocatorIwEEE5eraseENS_11__wrap_iterIPKwEES9_", scope: !972, file: !25, line: 1071, type: !1613, isLocal: false, isDefinition: false, scopeLine: 1071, flags: DIFlagPublic | DIFlagPrototyped, isOptimized: false)
!1613 = !DISubroutineType(types: !1614)
!1614 = !{!1484, !1195, !1489, !1489}
!1615 = !DISubprogram(name: "replace", linkageName: "_ZNSt3__112basic_stringIwNS_11char_traitsIwEENS_9allocatorIwEEE7replaceEmmRKS5_", scope: !972, file: !25, line: 1074, type: !1616, isLocal: false, isDefinition: false, scopeLine: 1074, flags: DIFlagPublic | DIFlagPrototyped, isOptimized: false)
!1616 = !DISubroutineType(types: !1617)
!1617 = !{!1466, !1195, !977, !977, !1205}
!1618 = !DISubprogram(name: "replace", linkageName: "_ZNSt3__112basic_stringIwNS_11char_traitsIwEENS_9allocatorIwEEE7replaceEmmNS_17basic_string_viewIwS2_EE", scope: !972, file: !25, line: 1076, type: !1619, isLocal: false, isDefinition: false, scopeLine: 1076, flags: DIFlagPublic | DIFlagPrototyped, isOptimized: false)
!1619 = !DISubroutineType(types: !1620)
!1620 = !{!1466, !1195, !977, !977, !1244}
!1621 = !DISubprogram(name: "replace", linkageName: "_ZNSt3__112basic_stringIwNS_11char_traitsIwEENS_9allocatorIwEEE7replaceEmmRKS5_mm", scope: !972, file: !25, line: 1077, type: !1622, isLocal: false, isDefinition: false, scopeLine: 1077, flags: DIFlagPublic | DIFlagPrototyped, isOptimized: false)
!1622 = !DISubroutineType(types: !1623)
!1623 = !{!1466, !1195, !977, !977, !1205, !977, !977}
!1624 = !DISubprogram(name: "replace", linkageName: "_ZNSt3__112basic_stringIwNS_11char_traitsIwEENS_9allocatorIwEEE7replaceEmmPKwm", scope: !972, file: !25, line: 1086, type: !1625, isLocal: false, isDefinition: false, scopeLine: 1086, flags: DIFlagPublic | DIFlagPrototyped, isOptimized: false)
!1625 = !DISubroutineType(types: !1626)
!1626 = !{!1466, !1195, !977, !977, !1476, !977}
!1627 = !DISubprogram(name: "replace", linkageName: "_ZNSt3__112basic_stringIwNS_11char_traitsIwEENS_9allocatorIwEEE7replaceEmmPKw", scope: !972, file: !25, line: 1087, type: !1628, isLocal: false, isDefinition: false, scopeLine: 1087, flags: DIFlagPublic | DIFlagPrototyped, isOptimized: false)
!1628 = !DISubroutineType(types: !1629)
!1629 = !{!1466, !1195, !977, !977, !1476}
!1630 = !DISubprogram(name: "replace", linkageName: "_ZNSt3__112basic_stringIwNS_11char_traitsIwEENS_9allocatorIwEEE7replaceEmmmw", scope: !972, file: !25, line: 1088, type: !1631, isLocal: false, isDefinition: false, scopeLine: 1088, flags: DIFlagPublic | DIFlagPrototyped, isOptimized: false)
!1631 = !DISubroutineType(types: !1632)
!1632 = !{!1466, !1195, !977, !977, !977, !1118}
!1633 = !DISubprogram(name: "replace", linkageName: "_ZNSt3__112basic_stringIwNS_11char_traitsIwEENS_9allocatorIwEEE7replaceENS_11__wrap_iterIPKwEES9_RKS5_", scope: !972, file: !25, line: 1090, type: !1634, isLocal: false, isDefinition: false, scopeLine: 1090, flags: DIFlagPublic | DIFlagPrototyped, isOptimized: false)
!1634 = !DISubroutineType(types: !1635)
!1635 = !{!1466, !1195, !1489, !1489, !1205}
!1636 = !DISubprogram(name: "replace", linkageName: "_ZNSt3__112basic_stringIwNS_11char_traitsIwEENS_9allocatorIwEEE7replaceENS_11__wrap_iterIPKwEES9_NS_17basic_string_viewIwS2_EE", scope: !972, file: !25, line: 1092, type: !1637, isLocal: false, isDefinition: false, scopeLine: 1092, flags: DIFlagPublic | DIFlagPrototyped, isOptimized: false)
!1637 = !DISubroutineType(types: !1638)
!1638 = !{!1466, !1195, !1489, !1489, !1244}
!1639 = !DISubprogram(name: "replace", linkageName: "_ZNSt3__112basic_stringIwNS_11char_traitsIwEENS_9allocatorIwEEE7replaceENS_11__wrap_iterIPKwEES9_S8_m", scope: !972, file: !25, line: 1094, type: !1640, isLocal: false, isDefinition: false, scopeLine: 1094, flags: DIFlagPublic | DIFlagPrototyped, isOptimized: false)
!1640 = !DISubroutineType(types: !1641)
!1641 = !{!1466, !1195, !1489, !1489, !1476, !977}
!1642 = !DISubprogram(name: "replace", linkageName: "_ZNSt3__112basic_stringIwNS_11char_traitsIwEENS_9allocatorIwEEE7replaceENS_11__wrap_iterIPKwEES9_S8_", scope: !972, file: !25, line: 1096, type: !1643, isLocal: false, isDefinition: false, scopeLine: 1096, flags: DIFlagPublic | DIFlagPrototyped, isOptimized: false)
!1643 = !DISubroutineType(types: !1644)
!1644 = !{!1466, !1195, !1489, !1489, !1476}
!1645 = !DISubprogram(name: "replace", linkageName: "_ZNSt3__112basic_stringIwNS_11char_traitsIwEENS_9allocatorIwEEE7replaceENS_11__wrap_iterIPKwEES9_mw", scope: !972, file: !25, line: 1098, type: !1646, isLocal: false, isDefinition: false, scopeLine: 1098, flags: DIFlagPublic | DIFlagPrototyped, isOptimized: false)
!1646 = !DISubroutineType(types: !1647)
!1647 = !{!1466, !1195, !1489, !1489, !977, !1118}
!1648 = !DISubprogram(name: "replace", linkageName: "_ZNSt3__112basic_stringIwNS_11char_traitsIwEENS_9allocatorIwEEE7replaceENS_11__wrap_iterIPKwEES9_St16initializer_listIwE", scope: !972, file: !25, line: 1109, type: !1649, isLocal: false, isDefinition: false, scopeLine: 1109, flags: DIFlagPublic | DIFlagPrototyped, isOptimized: false)
!1649 = !DISubroutineType(types: !1650)
!1650 = !{!1466, !1195, !1489, !1489, !1433}
!1651 = !DISubprogram(name: "copy", linkageName: "_ZNKSt3__112basic_stringIwNS_11char_traitsIwEENS_9allocatorIwEEE4copyEPwmm", scope: !972, file: !25, line: 1113, type: !1652, isLocal: false, isDefinition: false, scopeLine: 1113, flags: DIFlagPublic | DIFlagPrototyped, isOptimized: false)
!1652 = !DISubroutineType(types: !1653)
!1653 = !{!977, !1462, !1654, !977, !977}
!1654 = !DIDerivedType(tag: DW_TAG_pointer_type, baseType: !1118, size: 64)
!1655 = !DISubprogram(name: "substr", linkageName: "_ZNKSt3__112basic_stringIwNS_11char_traitsIwEENS_9allocatorIwEEE6substrEmm", scope: !972, file: !25, line: 1115, type: !1656, isLocal: false, isDefinition: false, scopeLine: 1115, flags: DIFlagPublic | DIFlagPrototyped, isOptimized: false)
!1656 = !DISubroutineType(types: !1657)
!1657 = !{!972, !1462, !977, !977}
!1658 = !DISubprogram(name: "swap", linkageName: "_ZNSt3__112basic_stringIwNS_11char_traitsIwEENS_9allocatorIwEEE4swapERS5_", scope: !972, file: !25, line: 1118, type: !1659, isLocal: false, isDefinition: false, scopeLine: 1118, flags: DIFlagPublic | DIFlagPrototyped, isOptimized: false)
!1659 = !DISubroutineType(types: !1660)
!1660 = !{null, !1195, !1466}
!1661 = !DISubprogram(name: "c_str", linkageName: "_ZNKSt3__112basic_stringIwNS_11char_traitsIwEENS_9allocatorIwEEE5c_strEv", scope: !972, file: !25, line: 1127, type: !1662, isLocal: false, isDefinition: false, scopeLine: 1127, flags: DIFlagPublic | DIFlagPrototyped, isOptimized: false)
!1662 = !DISubroutineType(types: !1663)
!1663 = !{!1476, !1462}
!1664 = !DISubprogram(name: "data", linkageName: "_ZNKSt3__112basic_stringIwNS_11char_traitsIwEENS_9allocatorIwEEE4dataEv", scope: !972, file: !25, line: 1129, type: !1662, isLocal: false, isDefinition: false, scopeLine: 1129, flags: DIFlagPublic | DIFlagPrototyped, isOptimized: false)
!1665 = !DISubprogram(name: "get_allocator", linkageName: "_ZNKSt3__112basic_stringIwNS_11char_traitsIwEENS_9allocatorIwEEE13get_allocatorEv", scope: !972, file: !25, line: 1136, type: !1666, isLocal: false, isDefinition: false, scopeLine: 1136, flags: DIFlagPublic | DIFlagPrototyped, isOptimized: false)
!1666 = !DISubroutineType(types: !1667)
!1667 = !{!1201, !1462}
!1668 = !DISubprogram(name: "find", linkageName: "_ZNKSt3__112basic_stringIwNS_11char_traitsIwEENS_9allocatorIwEEE4findERKS5_m", scope: !972, file: !25, line: 1139, type: !1669, isLocal: false, isDefinition: false, scopeLine: 1139, flags: DIFlagPublic | DIFlagPrototyped, isOptimized: false)
!1669 = !DISubroutineType(types: !1670)
!1670 = !{!977, !1462, !1205, !977}
!1671 = !DISubprogram(name: "find", linkageName: "_ZNKSt3__112basic_stringIwNS_11char_traitsIwEENS_9allocatorIwEEE4findENS_17basic_string_viewIwS2_EEm", scope: !972, file: !25, line: 1141, type: !1672, isLocal: false, isDefinition: false, scopeLine: 1141, flags: DIFlagPublic | DIFlagPrototyped, isOptimized: false)
!1672 = !DISubroutineType(types: !1673)
!1673 = !{!977, !1462, !1244, !977}
!1674 = !DISubprogram(name: "find", linkageName: "_ZNKSt3__112basic_stringIwNS_11char_traitsIwEENS_9allocatorIwEEE4findEPKwmm", scope: !972, file: !25, line: 1142, type: !1675, isLocal: false, isDefinition: false, scopeLine: 1142, flags: DIFlagPublic | DIFlagPrototyped, isOptimized: false)
