; ModuleID = 'temp.bc'
source_filename = "perf_test.cc"
target datalayout = "e-m:o-i64:64-f80:128-n8:16:32:64-S128"
target triple = "x86_64-apple-macosx10.13.0"

%"class.altered_carbon::js::JsVariant" = type { i32 (...)**, i32, %union.anon }
%union.anon = type { %"class.std::__1::basic_string", [16 x i8] }
%"class.std::__1::basic_string" = type { %"class.std::__1::__compressed_pair" }
%"class.std::__1::__compressed_pair" = type { %"struct.std::__1::__compressed_pair_elem" }
%"struct.std::__1::__compressed_pair_elem" = type { %"struct.std::__1::basic_string<wchar_t, std::__1::char_traits<wchar_t>, std::__1::allocator<wchar_t> >::__rep" }
%"struct.std::__1::basic_string<wchar_t, std::__1::char_traits<wchar_t>, std::__1::allocator<wchar_t> >::__rep" = type { %union.anon.0 }
%union.anon.0 = type { %"struct.std::__1::basic_string<wchar_t, std::__1::char_traits<wchar_t>, std::__1::allocator<wchar_t> >::__long" }
%"struct.std::__1::basic_string<wchar_t, std::__1::char_traits<wchar_t>, std::__1::allocator<wchar_t> >::__long" = type { i64, i64, i32* }

; Function Attrs: noinline norecurse nounwind optnone ssp uwtable
define i32 @main(i32, i8**) #0 !dbg !4082 {
  %3 = alloca i32, align 4
  %4 = alloca i32, align 4
  %5 = alloca i8**, align 8
  %6 = alloca %"class.altered_carbon::js::JsVariant", align 8
  %7 = alloca %"class.altered_carbon::js::JsVariant", align 8
  %8 = alloca %"class.altered_carbon::js::JsVariant", align 8
  %9 = alloca %"class.altered_carbon::js::JsVariant", align 8
  store i32 0, i32* %3, align 4
  store i32 %0, i32* %4, align 4
  call void @llvm.dbg.declare(metadata i32* %4, metadata !4085, metadata !DIExpression()), !dbg !4086
  store i8** %1, i8*** %5, align 8
  call void @llvm.dbg.declare(metadata i8*** %5, metadata !4087, metadata !DIExpression()), !dbg !4088
  call void @llvm.dbg.declare(metadata %"class.altered_carbon::js::JsVariant"* %6, metadata !4089, metadata !DIExpression()), !dbg !4090
  call void @_ZN14altered_carbon2js9JsVariantC1ENS1_13JsVariantTypeE(%"class.altered_carbon::js::JsVariant"* %6, i32 1), !dbg !4090
  call void @llvm.dbg.declare(metadata %"class.altered_carbon::js::JsVariant"* %7, metadata !4091, metadata !DIExpression()), !dbg !4092
  call void @_ZN14altered_carbon2js9JsVariantC1Ei(%"class.altered_carbon::js::JsVariant"* %7, i32 100000000), !dbg !4092
  call void @llvm.dbg.declare(metadata %"class.altered_carbon::js::JsVariant"* %8, metadata !4093, metadata !DIExpression()), !dbg !4094
  call void @_ZN14altered_carbon2js9JsVariantC1Ei(%"class.altered_carbon::js::JsVariant"* %8, i32 1), !dbg !4094
  call void @llvm.dbg.declare(metadata %"class.altered_carbon::js::JsVariant"* %9, metadata !4095, metadata !DIExpression()), !dbg !4096
  call void @_ZN14altered_carbon2js9JsVariantC1Ei(%"class.altered_carbon::js::JsVariant"* %9, i32 0), !dbg !4096
  %10 = call dereferenceable(56) %"class.altered_carbon::js::JsVariant"* @_ZN14altered_carbon2js9JsVariantaSEx(%"class.altered_carbon::js::JsVariant"* %6, i64 0), !dbg !4097
  br label %11, !dbg !4099

; <label>:11:                                     ; preds = %15, %2
  %12 = call zeroext i1 @_ZNK14altered_carbon2js9JsVariantleERKS1_(%"class.altered_carbon::js::JsVariant"* %6, %"class.altered_carbon::js::JsVariant"* dereferenceable(56) %7), !dbg !4100
  br i1 %12, label %13, label %17, !dbg !4102

; <label>:13:                                     ; preds = %11
  %14 = call dereferenceable(56) %"class.altered_carbon::js::JsVariant"* @_ZN14altered_carbon2js9JsVariantpLERKS1_(%"class.altered_carbon::js::JsVariant"* %9, %"class.altered_carbon::js::JsVariant"* dereferenceable(56) %6), !dbg !4103
  br label %15, !dbg !4105

; <label>:15:                                     ; preds = %13
  %16 = call dereferenceable(56) %"class.altered_carbon::js::JsVariant"* @_ZN14altered_carbon2js9JsVariantpLERKS1_(%"class.altered_carbon::js::JsVariant"* %6, %"class.altered_carbon::js::JsVariant"* dereferenceable(56) %8), !dbg !4106
  br label %11, !dbg !4107, !llvm.loop !4108

; <label>:17:                                     ; preds = %11
  store i32 0, i32* %3, align 4, !dbg !4110
  call void @_ZN14altered_carbon2js9JsVariantD1Ev(%"class.altered_carbon::js::JsVariant"* %9) #4, !dbg !4111
  call void @_ZN14altered_carbon2js9JsVariantD1Ev(%"class.altered_carbon::js::JsVariant"* %8) #4, !dbg !4111
  call void @_ZN14altered_carbon2js9JsVariantD1Ev(%"class.altered_carbon::js::JsVariant"* %7) #4, !dbg !4111
  call void @_ZN14altered_carbon2js9JsVariantD1Ev(%"class.altered_carbon::js::JsVariant"* %6) #4, !dbg !4111
  %18 = load i32, i32* %3, align 4, !dbg !4111
  ret i32 %18, !dbg !4111
}

; Function Attrs: nounwind readnone speculatable
declare void @llvm.dbg.declare(metadata, metadata, metadata) #1

declare void @_ZN14altered_carbon2js9JsVariantC1ENS1_13JsVariantTypeE(%"class.altered_carbon::js::JsVariant"*, i32) unnamed_addr #2

declare void @_ZN14altered_carbon2js9JsVariantC1Ei(%"class.altered_carbon::js::JsVariant"*, i32) unnamed_addr #2

declare dereferenceable(56) %"class.altered_carbon::js::JsVariant"* @_ZN14altered_carbon2js9JsVariantaSEx(%"class.altered_carbon::js::JsVariant"*, i64) #2

declare zeroext i1 @_ZNK14altered_carbon2js9JsVariantleERKS1_(%"class.altered_carbon::js::JsVariant"*, %"class.altered_carbon::js::JsVariant"* dereferenceable(56)) #2

declare dereferenceable(56) %"class.altered_carbon::js::JsVariant"* @_ZN14altered_carbon2js9JsVariantpLERKS1_(%"class.altered_carbon::js::JsVariant"*, %"class.altered_carbon::js::JsVariant"* dereferenceable(56)) #2

; Function Attrs: nounwind
declare void @_ZN14altered_carbon2js9JsVariantD1Ev(%"class.altered_carbon::js::JsVariant"*) unnamed_addr #3

attributes #0 = { noinline norecurse nounwind optnone ssp uwtable "correctly-rounded-divide-sqrt-fp-math"="false" "disable-tail-calls"="false" "less-precise-fpmad"="false" "no-frame-pointer-elim"="true" "no-frame-pointer-elim-non-leaf" "no-infs-fp-math"="false" "no-jump-tables"="false" "no-nans-fp-math"="false" "no-signed-zeros-fp-math"="false" "no-trapping-math"="false" "stack-protector-buffer-size"="8" "target-cpu"="penryn" "target-features"="+cx16,+fxsr,+mmx,+sse,+sse2,+sse3,+sse4.1,+ssse3,+x87" "unsafe-fp-math"="false" "use-soft-float"="false" }
attributes #1 = { nounwind readnone speculatable }
attributes #2 = { "correctly-rounded-divide-sqrt-fp-math"="false" "disable-tail-calls"="false" "less-precise-fpmad"="false" "no-frame-pointer-elim"="true" "no-frame-pointer-elim-non-leaf" "no-infs-fp-math"="false" "no-nans-fp-math"="false" "no-signed-zeros-fp-math"="false" "no-trapping-math"="false" "stack-protector-buffer-size"="8" "target-cpu"="penryn" "target-features"="+cx16,+fxsr,+mmx,+sse,+sse2,+sse3,+sse4.1,+ssse3,+x87" "unsafe-fp-math"="false" "use-soft-float"="false" }
attributes #3 = { nounwind "correctly-rounded-divide-sqrt-fp-math"="false" "disable-tail-calls"="false" "less-precise-fpmad"="false" "no-frame-pointer-elim"="true" "no-frame-pointer-elim-non-leaf" "no-infs-fp-math"="false" "no-nans-fp-math"="false" "no-signed-zeros-fp-math"="false" "no-trapping-math"="false" "stack-protector-buffer-size"="8" "target-cpu"="penryn" "target-features"="+cx16,+fxsr,+mmx,+sse,+sse2,+sse3,+sse4.1,+ssse3,+x87" "unsafe-fp-math"="false" "use-soft-float"="false" }
attributes #4 = { nounwind }

!llvm.dbg.cu = !{!0}
!llvm.module.flags = !{!4077, !4078, !4079, !4080}
!llvm.ident = !{!4081}

!0 = distinct !DICompileUnit(language: DW_LANG_C_plus_plus, file: !1, producer: "Apple LLVM version 9.1.0 (clang-902.0.39.2)", isOptimized: false, runtimeVersion: 0, emissionKind: FullDebug, enums: !2, retainedTypes: !2875, imports: !2876)
!1 = !DIFile(filename: "perf_test.cc", directory: "/Users/ejiang/Projects/lls/ac/asserts")
!2 = !{!3, !2215, !2516}
!3 = !DICompositeType(tag: DW_TAG_enumeration_type, name: "JsVariantType", scope: !5, file: !4, line: 48, size: 32, elements: !2862, identifier: "_ZTSN14altered_carbon2js9JsVariant13JsVariantTypeE")
!4 = !DIFile(filename: "./../ac_vm_jsvariant.h", directory: "/Users/ejiang/Projects/lls/ac/asserts")
!5 = distinct !DICompositeType(tag: DW_TAG_class_type, name: "JsVariant", scope: !6, file: !4, line: 46, size: 448, elements: !8, vtableHolder: !5, identifier: "_ZTSN14altered_carbon2js9JsVariantE")
!6 = !DINamespace(name: "js", scope: !7)
!7 = !DINamespace(name: "altered_carbon", scope: null)
!8 = !{!9, !15, !16, !2093, !2098, !2101, !2105, !2110, !2113, !2116, !2120, !2123, !2126, !2131, !2134, !2137, !2140, !2143, !2147, !2756, !2759, !2762, !2765, !2768, !2771, !2774, !2777, !2780, !2783, !2786, !2789, !2792, !2795, !2796, !2797, !2800, !2803, !2806, !2807, !2808, !2809, !2810, !2813, !2814, !2815, !2816, !2817, !2818, !2819, !2820, !2821, !2822, !2823, !2824, !2825, !2826, !2827, !2828, !2829, !2830, !2831, !2832, !2833, !2834, !2837, !2838, !2839, !2840, !2841, !2842, !2843, !2844, !2847, !2848, !2851, !2852, !2853, !2854, !2855, !2858, !2859}
!9 = !DIDerivedType(tag: DW_TAG_member, name: "_vptr$JsVariant", scope: !4, file: !4, baseType: !10, size: 64, flags: DIFlagArtificial)
!10 = !DIDerivedType(tag: DW_TAG_pointer_type, baseType: !11, size: 64)
!11 = !DIDerivedType(tag: DW_TAG_pointer_type, name: "__vtbl_ptr_type", baseType: !12, size: 64)
!12 = !DISubroutineType(types: !13)
!13 = !{!14}
!14 = !DIBasicType(name: "int", size: 32, encoding: DW_ATE_signed)
!15 = !DIDerivedType(tag: DW_TAG_member, name: "type_", scope: !5, file: !4, line: 64, baseType: !14, size: 32, offset: 64)
!16 = !DIDerivedType(tag: DW_TAG_member, scope: !5, file: !4, line: 65, baseType: !17, size: 320, offset: 128)
!17 = distinct !DICompositeType(tag: DW_TAG_union_type, scope: !5, file: !4, line: 65, size: 320, elements: !18, identifier: "_ZTSN14altered_carbon2js9JsVariantUt_E")
!18 = !{!19, !193, !196, !198, !200, !201, !1095, !1096, !1945}
!19 = !DIDerivedType(tag: DW_TAG_member, name: "shr_r_", scope: !17, file: !4, line: 66, baseType: !20, size: 128)
!20 = !DIDerivedType(tag: DW_TAG_typedef, name: "SJSVARIANT", scope: !6, file: !4, line: 14, baseType: !21)
!21 = distinct !DICompositeType(tag: DW_TAG_class_type, name: "shared_ptr<altered_carbon::js::JsVariant>", scope: !23, file: !22, line: 3640, size: 128, elements: !25, templateParams: !172, identifier: "_ZTSNSt3__110shared_ptrIN14altered_carbon2js9JsVariantEEE")
!22 = !DIFile(filename: "/Applications/Xcode.app/Contents/Developer/Toolchains/XcodeDefault.xctoolchain/usr/include/c++/v1/memory", directory: "/Users/ejiang/Projects/lls/ac/asserts")
!23 = !DINamespace(name: "__1", scope: !24, exportSymbols: true)
!24 = !DINamespace(name: "std", scope: null)
!25 = !{!26, !29, !130, !134, !140, !145, !149, !150, !154, !157, !160, !161, !165, !179, !180, !183, !186, !187, !190}
!26 = !DIDerivedType(tag: DW_TAG_member, name: "__ptr_", scope: !21, file: !22, line: 3649, baseType: !27, size: 64)
!27 = !DIDerivedType(tag: DW_TAG_pointer_type, baseType: !28, size: 64)
!28 = !DIDerivedType(tag: DW_TAG_typedef, name: "element_type", scope: !21, file: !22, line: 3643, baseType: !5)
!29 = !DIDerivedType(tag: DW_TAG_member, name: "__cntrl_", scope: !21, file: !22, line: 3650, baseType: !30, size: 64, offset: 64)
!30 = !DIDerivedType(tag: DW_TAG_pointer_type, baseType: !31, size: 64)
!31 = distinct !DICompositeType(tag: DW_TAG_class_type, name: "__shared_weak_count", scope: !23, file: !22, line: 3456, size: 192, elements: !32, vtableHolder: !34, identifier: "_ZTSNSt3__119__shared_weak_countE")
!32 = !{!33, !65, !66, !70, !73, !74, !75, !76, !77, !82, !85, !129}
!33 = !DIDerivedType(tag: DW_TAG_inheritance, scope: !31, baseType: !34)
!34 = distinct !DICompositeType(tag: DW_TAG_class_type, name: "__shared_count", scope: !23, file: !22, line: 3416, size: 128, elements: !35, vtableHolder: !34, identifier: "_ZTSNSt3__114__shared_countE")
!35 = !{!36, !37, !39, !45, !49, !52, !53, !56, !57, !61}
!36 = !DIDerivedType(tag: DW_TAG_member, name: "_vptr$__shared_count", scope: !22, file: !22, baseType: !10, size: 64, flags: DIFlagArtificial)
!37 = !DIDerivedType(tag: DW_TAG_member, name: "__shared_owners_", scope: !34, file: !22, line: 3422, baseType: !38, size: 64, offset: 64, flags: DIFlagProtected)
!38 = !DIBasicType(name: "long int", size: 64, encoding: DW_ATE_signed)
!39 = !DISubprogram(name: "__shared_count", scope: !34, file: !22, line: 3418, type: !40, isLocal: false, isDefinition: false, scopeLine: 3418, flags: DIFlagPrototyped, isOptimized: false)
!40 = !DISubroutineType(types: !41)
!41 = !{null, !42, !43}
!42 = !DIDerivedType(tag: DW_TAG_pointer_type, baseType: !34, size: 64, flags: DIFlagArtificial | DIFlagObjectPointer)
!43 = !DIDerivedType(tag: DW_TAG_reference_type, baseType: !44, size: 64)
!44 = !DIDerivedType(tag: DW_TAG_const_type, baseType: !34)
!45 = !DISubprogram(name: "operator=", linkageName: "_ZNSt3__114__shared_countaSERKS0_", scope: !34, file: !22, line: 3419, type: !46, isLocal: false, isDefinition: false, scopeLine: 3419, flags: DIFlagPrototyped, isOptimized: false)
!46 = !DISubroutineType(types: !47)
!47 = !{!48, !42, !43}
!48 = !DIDerivedType(tag: DW_TAG_reference_type, baseType: !34, size: 64)
!49 = !DISubprogram(name: "~__shared_count", scope: !34, file: !22, line: 3423, type: !50, isLocal: false, isDefinition: false, scopeLine: 3423, containingType: !34, virtuality: DW_VIRTUALITY_virtual, virtualIndex: 0, flags: DIFlagProtected | DIFlagPrototyped, isOptimized: false)
!50 = !DISubroutineType(types: !51)
!51 = !{null, !42}
!52 = !DISubprogram(name: "__on_zero_shared", linkageName: "_ZNSt3__114__shared_count16__on_zero_sharedEv", scope: !34, file: !22, line: 3425, type: !50, isLocal: false, isDefinition: false, scopeLine: 3425, containingType: !34, virtuality: DW_VIRTUALITY_pure_virtual, virtualIndex: 2, flags: DIFlagPrototyped, isOptimized: false)
!53 = !DISubprogram(name: "__shared_count", scope: !34, file: !22, line: 3429, type: !54, isLocal: false, isDefinition: false, scopeLine: 3429, flags: DIFlagPublic | DIFlagExplicit | DIFlagPrototyped, isOptimized: false)
!54 = !DISubroutineType(types: !55)
!55 = !{null, !42, !38}
!56 = !DISubprogram(name: "__add_shared", linkageName: "_ZNSt3__114__shared_count12__add_sharedEv", scope: !34, file: !22, line: 3438, type: !50, isLocal: false, isDefinition: false, scopeLine: 3438, flags: DIFlagPublic | DIFlagPrototyped, isOptimized: false)
!57 = !DISubprogram(name: "__release_shared", linkageName: "_ZNSt3__114__shared_count16__release_sharedEv", scope: !34, file: !22, line: 3442, type: !58, isLocal: false, isDefinition: false, scopeLine: 3442, flags: DIFlagPublic | DIFlagPrototyped, isOptimized: false)
!58 = !DISubroutineType(types: !59)
!59 = !{!60, !42}
!60 = !DIBasicType(name: "bool", size: 8, encoding: DW_ATE_boolean)
!61 = !DISubprogram(name: "use_count", linkageName: "_ZNKSt3__114__shared_count9use_countEv", scope: !34, file: !22, line: 3451, type: !62, isLocal: false, isDefinition: false, scopeLine: 3451, flags: DIFlagPublic | DIFlagPrototyped, isOptimized: false)
!62 = !DISubroutineType(types: !63)
!63 = !{!38, !64}
!64 = !DIDerivedType(tag: DW_TAG_pointer_type, baseType: !44, size: 64, flags: DIFlagArtificial | DIFlagObjectPointer)
!65 = !DIDerivedType(tag: DW_TAG_member, name: "__shared_weak_owners_", scope: !31, file: !22, line: 3459, baseType: !38, size: 64, offset: 128)
!66 = !DISubprogram(name: "__shared_weak_count", scope: !31, file: !22, line: 3463, type: !67, isLocal: false, isDefinition: false, scopeLine: 3463, flags: DIFlagPublic | DIFlagExplicit | DIFlagPrototyped, isOptimized: false)
!67 = !DISubroutineType(types: !68)
!68 = !{null, !69, !38}
!69 = !DIDerivedType(tag: DW_TAG_pointer_type, baseType: !31, size: 64, flags: DIFlagArtificial | DIFlagObjectPointer)
!70 = !DISubprogram(name: "~__shared_weak_count", scope: !31, file: !22, line: 3467, type: !71, isLocal: false, isDefinition: false, scopeLine: 3467, containingType: !31, virtuality: DW_VIRTUALITY_virtual, virtualIndex: 0, flags: DIFlagProtected | DIFlagPrototyped, isOptimized: false)
!71 = !DISubroutineType(types: !72)
!72 = !{null, !69}
!73 = !DISubprogram(name: "__add_shared", linkageName: "_ZNSt3__119__shared_weak_count12__add_sharedEv", scope: !31, file: !22, line: 3477, type: !71, isLocal: false, isDefinition: false, scopeLine: 3477, flags: DIFlagPublic | DIFlagPrototyped, isOptimized: false)
!74 = !DISubprogram(name: "__add_weak", linkageName: "_ZNSt3__119__shared_weak_count10__add_weakEv", scope: !31, file: !22, line: 3481, type: !71, isLocal: false, isDefinition: false, scopeLine: 3481, flags: DIFlagPublic | DIFlagPrototyped, isOptimized: false)
!75 = !DISubprogram(name: "__release_shared", linkageName: "_ZNSt3__119__shared_weak_count16__release_sharedEv", scope: !31, file: !22, line: 3485, type: !71, isLocal: false, isDefinition: false, scopeLine: 3485, flags: DIFlagPublic | DIFlagPrototyped, isOptimized: false)
!76 = !DISubprogram(name: "__release_weak", linkageName: "_ZNSt3__119__shared_weak_count14__release_weakEv", scope: !31, file: !22, line: 3490, type: !71, isLocal: false, isDefinition: false, scopeLine: 3490, flags: DIFlagPublic | DIFlagPrototyped, isOptimized: false)
!77 = !DISubprogram(name: "use_count", linkageName: "_ZNKSt3__119__shared_weak_count9use_countEv", scope: !31, file: !22, line: 3492, type: !78, isLocal: false, isDefinition: false, scopeLine: 3492, flags: DIFlagPublic | DIFlagPrototyped, isOptimized: false)
!78 = !DISubroutineType(types: !79)
!79 = !{!38, !80}
!80 = !DIDerivedType(tag: DW_TAG_pointer_type, baseType: !81, size: 64, flags: DIFlagArtificial | DIFlagObjectPointer)
!81 = !DIDerivedType(tag: DW_TAG_const_type, baseType: !31)
!82 = !DISubprogram(name: "lock", linkageName: "_ZNSt3__119__shared_weak_count4lockEv", scope: !31, file: !22, line: 3493, type: !83, isLocal: false, isDefinition: false, scopeLine: 3493, flags: DIFlagPublic | DIFlagPrototyped, isOptimized: false)
!83 = !DISubroutineType(types: !84)
!84 = !{!30, !69}
!85 = !DISubprogram(name: "__get_deleter", linkageName: "_ZNKSt3__119__shared_weak_count13__get_deleterERKSt9type_info", scope: !31, file: !22, line: 3500, type: !86, isLocal: false, isDefinition: false, scopeLine: 3500, containingType: !31, virtuality: DW_VIRTUALITY_virtual, virtualIndex: 3, flags: DIFlagPublic | DIFlagPrototyped, isOptimized: false)
!86 = !DISubroutineType(types: !87)
!87 = !{!88, !80, !90}
!88 = !DIDerivedType(tag: DW_TAG_pointer_type, baseType: !89, size: 64)
!89 = !DIDerivedType(tag: DW_TAG_const_type, baseType: null)
!90 = !DIDerivedType(tag: DW_TAG_reference_type, baseType: !91, size: 64)
!91 = !DIDerivedType(tag: DW_TAG_const_type, baseType: !92)
!92 = distinct !DICompositeType(tag: DW_TAG_class_type, name: "type_info", scope: !24, file: !93, line: 84, size: 128, elements: !94, vtableHolder: !92, identifier: "_ZTSSt9type_info")
!93 = !DIFile(filename: "/Applications/Xcode.app/Contents/Developer/Toolchains/XcodeDefault.xctoolchain/usr/include/c++/v1/typeinfo", directory: "/Users/ejiang/Projects/lls/ac/asserts")
!94 = !{!95, !96, !100, !105, !108, !111, !114, !118, !121, !127, !128}
!95 = !DIDerivedType(tag: DW_TAG_member, name: "_vptr$type_info", scope: !93, file: !93, baseType: !10, size: 64, flags: DIFlagArtificial)
!96 = !DIDerivedType(tag: DW_TAG_member, name: "__type_name", scope: !92, file: !93, line: 104, baseType: !97, size: 64, offset: 64, flags: DIFlagProtected)
!97 = !DIDerivedType(tag: DW_TAG_pointer_type, baseType: !98, size: 64)
!98 = !DIDerivedType(tag: DW_TAG_const_type, baseType: !99)
!99 = !DIBasicType(name: "char", size: 8, encoding: DW_ATE_signed_char)
!100 = !DISubprogram(name: "operator=", linkageName: "_ZNSt9type_infoaSERKS_", scope: !92, file: !93, line: 86, type: !101, isLocal: false, isDefinition: false, scopeLine: 86, flags: DIFlagPrototyped, isOptimized: false)
!101 = !DISubroutineType(types: !102)
!102 = !{!103, !104, !90}
!103 = !DIDerivedType(tag: DW_TAG_reference_type, baseType: !92, size: 64)
!104 = !DIDerivedType(tag: DW_TAG_pointer_type, baseType: !92, size: 64, flags: DIFlagArtificial | DIFlagObjectPointer)
!105 = !DISubprogram(name: "type_info", scope: !92, file: !93, line: 87, type: !106, isLocal: false, isDefinition: false, scopeLine: 87, flags: DIFlagPrototyped, isOptimized: false)
!106 = !DISubroutineType(types: !107)
!107 = !{null, !104, !90}
!108 = !DISubprogram(name: "type_info", scope: !92, file: !93, line: 107, type: !109, isLocal: false, isDefinition: false, scopeLine: 107, flags: DIFlagProtected | DIFlagExplicit | DIFlagPrototyped, isOptimized: false)
!109 = !DISubroutineType(types: !110)
!110 = !{null, !104, !97}
!111 = !DISubprogram(name: "~type_info", scope: !92, file: !93, line: 112, type: !112, isLocal: false, isDefinition: false, scopeLine: 112, containingType: !92, virtuality: DW_VIRTUALITY_virtual, virtualIndex: 0, flags: DIFlagPublic | DIFlagPrototyped, isOptimized: false)
!112 = !DISubroutineType(types: !113)
!113 = !{null, !104}
!114 = !DISubprogram(name: "name", linkageName: "_ZNKSt9type_info4nameEv", scope: !92, file: !93, line: 155, type: !115, isLocal: false, isDefinition: false, scopeLine: 155, flags: DIFlagPublic | DIFlagPrototyped, isOptimized: false)
!115 = !DISubroutineType(types: !116)
!116 = !{!97, !117}
!117 = !DIDerivedType(tag: DW_TAG_pointer_type, baseType: !91, size: 64, flags: DIFlagArtificial | DIFlagObjectPointer)
!118 = !DISubprogram(name: "before", linkageName: "_ZNKSt9type_info6beforeERKS_", scope: !92, file: !93, line: 159, type: !119, isLocal: false, isDefinition: false, scopeLine: 159, flags: DIFlagPublic | DIFlagPrototyped, isOptimized: false)
!119 = !DISubroutineType(types: !120)
!120 = !{!60, !117, !90}
!121 = !DISubprogram(name: "hash_code", linkageName: "_ZNKSt9type_info9hash_codeEv", scope: !92, file: !93, line: 163, type: !122, isLocal: false, isDefinition: false, scopeLine: 163, flags: DIFlagPublic | DIFlagPrototyped, isOptimized: false)
!122 = !DISubroutineType(types: !123)
!123 = !{!124, !117}
!124 = !DIDerivedType(tag: DW_TAG_typedef, name: "size_t", file: !125, line: 62, baseType: !126)
!125 = !DIFile(filename: "/Applications/Xcode.app/Contents/Developer/Toolchains/XcodeDefault.xctoolchain/usr/lib/clang/9.1.0/include/stddef.h", directory: "/Users/ejiang/Projects/lls/ac/asserts")
!126 = !DIBasicType(name: "long unsigned int", size: 64, encoding: DW_ATE_unsigned)
!127 = !DISubprogram(name: "operator==", linkageName: "_ZNKSt9type_infoeqERKS_", scope: !92, file: !93, line: 167, type: !119, isLocal: false, isDefinition: false, scopeLine: 167, flags: DIFlagPublic | DIFlagPrototyped, isOptimized: false)
!128 = !DISubprogram(name: "operator!=", linkageName: "_ZNKSt9type_infoneERKS_", scope: !92, file: !93, line: 172, type: !119, isLocal: false, isDefinition: false, scopeLine: 172, flags: DIFlagPublic | DIFlagPrototyped, isOptimized: false)
!129 = !DISubprogram(name: "__on_zero_shared_weak", linkageName: "_ZNSt3__119__shared_weak_count21__on_zero_shared_weakEv", scope: !31, file: !22, line: 3503, type: !71, isLocal: false, isDefinition: false, scopeLine: 3503, containingType: !31, virtuality: DW_VIRTUALITY_pure_virtual, virtualIndex: 4, flags: DIFlagPrototyped, isOptimized: false)
!130 = !DISubprogram(name: "shared_ptr", scope: !21, file: !22, line: 3655, type: !131, isLocal: false, isDefinition: false, scopeLine: 3655, flags: DIFlagPublic | DIFlagPrototyped, isOptimized: false)
!131 = !DISubroutineType(types: !132)
!132 = !{null, !133}
!133 = !DIDerivedType(tag: DW_TAG_pointer_type, baseType: !21, size: 64, flags: DIFlagArtificial | DIFlagObjectPointer)
!134 = !DISubprogram(name: "shared_ptr", scope: !21, file: !22, line: 3657, type: !135, isLocal: false, isDefinition: false, scopeLine: 3657, flags: DIFlagPublic | DIFlagPrototyped, isOptimized: false)
!135 = !DISubroutineType(types: !136)
!136 = !{null, !133, !137}
!137 = !DIDerivedType(tag: DW_TAG_typedef, name: "nullptr_t", scope: !24, file: !138, line: 57, baseType: !139)
!138 = !DIFile(filename: "/Applications/Xcode.app/Contents/Developer/Toolchains/XcodeDefault.xctoolchain/usr/include/c++/v1/__nullptr", directory: "/Users/ejiang/Projects/lls/ac/asserts")
!139 = !DIBasicType(tag: DW_TAG_unspecified_type, name: "decltype(nullptr)")
!140 = !DISubprogram(name: "shared_ptr", scope: !21, file: !22, line: 3671, type: !141, isLocal: false, isDefinition: false, scopeLine: 3671, flags: DIFlagPublic | DIFlagPrototyped, isOptimized: false)
!141 = !DISubroutineType(types: !142)
!142 = !{null, !133, !143}
!143 = !DIDerivedType(tag: DW_TAG_reference_type, baseType: !144, size: 64)
!144 = !DIDerivedType(tag: DW_TAG_const_type, baseType: !21)
!145 = !DISubprogram(name: "shared_ptr", scope: !21, file: !22, line: 3679, type: !146, isLocal: false, isDefinition: false, scopeLine: 3679, flags: DIFlagPublic | DIFlagPrototyped, isOptimized: false)
!146 = !DISubroutineType(types: !147)
!147 = !{null, !133, !148}
!148 = !DIDerivedType(tag: DW_TAG_rvalue_reference_type, baseType: !21, size: 64)
!149 = !DISubprogram(name: "~shared_ptr", scope: !21, file: !22, line: 3737, type: !131, isLocal: false, isDefinition: false, scopeLine: 3737, flags: DIFlagPublic | DIFlagPrototyped, isOptimized: false)
!150 = !DISubprogram(name: "operator=", linkageName: "_ZNSt3__110shared_ptrIN14altered_carbon2js9JsVariantEEaSERKS4_", scope: !21, file: !22, line: 3740, type: !151, isLocal: false, isDefinition: false, scopeLine: 3740, flags: DIFlagPublic | DIFlagPrototyped, isOptimized: false)
!151 = !DISubroutineType(types: !152)
!152 = !{!153, !133, !143}
!153 = !DIDerivedType(tag: DW_TAG_reference_type, baseType: !21, size: 64)
!154 = !DISubprogram(name: "operator=", linkageName: "_ZNSt3__110shared_ptrIN14altered_carbon2js9JsVariantEEaSEOS4_", scope: !21, file: !22, line: 3751, type: !155, isLocal: false, isDefinition: false, scopeLine: 3751, flags: DIFlagPublic | DIFlagPrototyped, isOptimized: false)
!155 = !DISubroutineType(types: !156)
!156 = !{!153, !133, !148}
!157 = !DISubprogram(name: "swap", linkageName: "_ZNSt3__110shared_ptrIN14altered_carbon2js9JsVariantEE4swapERS4_", scope: !21, file: !22, line: 3800, type: !158, isLocal: false, isDefinition: false, scopeLine: 3800, flags: DIFlagPublic | DIFlagPrototyped, isOptimized: false)
!158 = !DISubroutineType(types: !159)
!159 = !{null, !133, !153}
!160 = !DISubprogram(name: "reset", linkageName: "_ZNSt3__110shared_ptrIN14altered_carbon2js9JsVariantEE5resetEv", scope: !21, file: !22, line: 3802, type: !131, isLocal: false, isDefinition: false, scopeLine: 3802, flags: DIFlagPublic | DIFlagPrototyped, isOptimized: false)
!161 = !DISubprogram(name: "get", linkageName: "_ZNKSt3__110shared_ptrIN14altered_carbon2js9JsVariantEE3getEv", scope: !21, file: !22, line: 3829, type: !162, isLocal: false, isDefinition: false, scopeLine: 3829, flags: DIFlagPublic | DIFlagPrototyped, isOptimized: false)
!162 = !DISubroutineType(types: !163)
!163 = !{!27, !164}
!164 = !DIDerivedType(tag: DW_TAG_pointer_type, baseType: !144, size: 64, flags: DIFlagArtificial | DIFlagObjectPointer)
!165 = !DISubprogram(name: "operator*", linkageName: "_ZNKSt3__110shared_ptrIN14altered_carbon2js9JsVariantEEdeEv", scope: !21, file: !22, line: 3831, type: !166, isLocal: false, isDefinition: false, scopeLine: 3831, flags: DIFlagPublic | DIFlagPrototyped, isOptimized: false)
!166 = !DISubroutineType(types: !167)
!167 = !{!168, !164}
!168 = !DIDerivedType(tag: DW_TAG_typedef, name: "type", scope: !170, file: !169, line: 1084, baseType: !174)
!169 = !DIFile(filename: "/Applications/Xcode.app/Contents/Developer/Toolchains/XcodeDefault.xctoolchain/usr/include/c++/v1/type_traits", directory: "/Users/ejiang/Projects/lls/ac/asserts")
!170 = distinct !DICompositeType(tag: DW_TAG_structure_type, name: "add_lvalue_reference<altered_carbon::js::JsVariant>", scope: !23, file: !169, line: 1083, size: 8, elements: !171, templateParams: !172, identifier: "_ZTSNSt3__120add_lvalue_referenceIN14altered_carbon2js9JsVariantEEE")
!171 = !{}
!172 = !{!173}
!173 = !DITemplateTypeParameter(name: "_Tp", type: !5)
!174 = !DIDerivedType(tag: DW_TAG_typedef, name: "type", scope: !175, file: !169, line: 1081, baseType: !178)
!175 = distinct !DICompositeType(tag: DW_TAG_structure_type, name: "__add_lvalue_reference_impl<altered_carbon::js::JsVariant, true>", scope: !23, file: !169, line: 1081, size: 8, elements: !171, templateParams: !176, identifier: "_ZTSNSt3__127__add_lvalue_reference_implIN14altered_carbon2js9JsVariantELb1EEE")
!176 = !{!173, !177}
!177 = !DITemplateValueParameter(type: !60, value: i8 1)
!178 = !DIDerivedType(tag: DW_TAG_reference_type, baseType: !5, size: 64)
!179 = !DISubprogram(name: "operator->", linkageName: "_ZNKSt3__110shared_ptrIN14altered_carbon2js9JsVariantEEptEv", scope: !21, file: !22, line: 3834, type: !162, isLocal: false, isDefinition: false, scopeLine: 3834, flags: DIFlagPublic | DIFlagPrototyped, isOptimized: false)
!180 = !DISubprogram(name: "use_count", linkageName: "_ZNKSt3__110shared_ptrIN14altered_carbon2js9JsVariantEE9use_countEv", scope: !21, file: !22, line: 3836, type: !181, isLocal: false, isDefinition: false, scopeLine: 3836, flags: DIFlagPublic | DIFlagPrototyped, isOptimized: false)
!181 = !DISubroutineType(types: !182)
!182 = !{!38, !164}
!183 = !DISubprogram(name: "unique", linkageName: "_ZNKSt3__110shared_ptrIN14altered_carbon2js9JsVariantEE6uniqueEv", scope: !21, file: !22, line: 3838, type: !184, isLocal: false, isDefinition: false, scopeLine: 3838, flags: DIFlagPublic | DIFlagPrototyped, isOptimized: false)
!184 = !DISubroutineType(types: !185)
!185 = !{!60, !164}
!186 = !DISubprogram(name: "operator bool", linkageName: "_ZNKSt3__110shared_ptrIN14altered_carbon2js9JsVariantEEcvbEv", scope: !21, file: !22, line: 3840, type: !184, isLocal: false, isDefinition: false, scopeLine: 3840, flags: DIFlagPublic | DIFlagExplicit | DIFlagPrototyped, isOptimized: false)
!187 = !DISubprogram(name: "__owner_equivalent", linkageName: "_ZNKSt3__110shared_ptrIN14altered_carbon2js9JsVariantEE18__owner_equivalentERKS4_", scope: !21, file: !22, line: 3851, type: !188, isLocal: false, isDefinition: false, scopeLine: 3851, flags: DIFlagPublic | DIFlagPrototyped, isOptimized: false)
!188 = !DISubroutineType(types: !189)
!189 = !{!60, !164, !143}
!190 = !DISubprogram(name: "__enable_weak_this", linkageName: "_ZNSt3__110shared_ptrIN14altered_carbon2js9JsVariantEE18__enable_weak_thisEz", scope: !21, file: !22, line: 3936, type: !191, isLocal: false, isDefinition: false, scopeLine: 3936, flags: DIFlagPrototyped, isOptimized: false)
!191 = !DISubroutineType(types: !192)
!192 = !{null, !133, null}
!193 = !DIDerivedType(tag: DW_TAG_member, name: "unq_p_", scope: !17, file: !4, line: 67, baseType: !194, size: 64)
!194 = !DIDerivedType(tag: DW_TAG_pointer_type, baseType: !195, size: 64)
!195 = !DIDerivedType(tag: DW_TAG_const_type, baseType: !5)
!196 = !DIDerivedType(tag: DW_TAG_member, name: "int_v_", scope: !17, file: !4, line: 68, baseType: !197, size: 64)
!197 = !DIBasicType(name: "long long int", size: 64, encoding: DW_ATE_signed)
!198 = !DIDerivedType(tag: DW_TAG_member, name: "flt_v_", scope: !17, file: !4, line: 69, baseType: !199, size: 64)
!199 = !DIBasicType(name: "double", size: 64, encoding: DW_ATE_float)
!200 = !DIDerivedType(tag: DW_TAG_member, name: "bln_v_", scope: !17, file: !4, line: 70, baseType: !60, size: 8)
!201 = !DIDerivedType(tag: DW_TAG_member, name: "wst_v_", scope: !17, file: !4, line: 71, baseType: !202, size: 192)
!202 = !DIDerivedType(tag: DW_TAG_typedef, name: "wstring", scope: !23, file: !203, line: 195, baseType: !204)
!203 = !DIFile(filename: "/Applications/Xcode.app/Contents/Developer/Toolchains/XcodeDefault.xctoolchain/usr/include/c++/v1/iosfwd", directory: "/Users/ejiang/Projects/lls/ac/asserts")
!204 = distinct !DICompositeType(tag: DW_TAG_class_type, name: "basic_string<wchar_t, std::__1::char_traits<wchar_t>, std::__1::allocator<wchar_t> >", scope: !23, file: !205, line: 4003, size: 192, elements: !206, templateParams: !1093, identifier: "_ZTSNSt3__112basic_stringIwNS_11char_traitsIwEENS_9allocatorIwEEEE")
!205 = !DIFile(filename: "/Applications/Xcode.app/Contents/Developer/Toolchains/XcodeDefault.xctoolchain/usr/include/c++/v1/string", directory: "/Users/ejiang/Projects/lls/ac/asserts")
!206 = !{!207, !217, !367, !368, !475, !476, !480, !486, !491, !494, !498, !501, !504, !507, !510, !513, !516, !519, !522, !525, !717, !720, !746, !749, !750, !754, !758, !761, !764, !769, !772, !777, !782, !783, !784, !789, !794, !795, !796, !797, !798, !799, !800, !803, !804, !805, !806, !809, !812, !813, !814, !815, !818, !823, !828, !829, !830, !831, !834, !835, !836, !837, !838, !839, !842, !845, !846, !849, !850, !853, !854, !857, !860, !861, !862, !863, !864, !865, !866, !867, !868, !869, !870, !873, !876, !879, !882, !885, !888, !891, !894, !897, !900, !903, !906, !909, !912, !915, !918, !921, !924, !927, !930, !933, !936, !939, !942, !946, !949, !952, !955, !956, !959, !962, !965, !968, !971, !974, !975, !976, !977, !978, !979, !980, !981, !982, !983, !984, !985, !986, !987, !988, !989, !990, !991, !992, !993, !994, !995, !996, !997, !998, !999, !1002, !1005, !1008, !1011, !1014, !1017, !1020, !1023, !1024, !1025, !1029, !1032, !1033, !1034, !1035, !1036, !1037, !1038, !1039, !1042, !1045, !1053, !1054, !1055, !1056, !1057, !1058, !1061, !1064, !1067, !1068, !1071, !1074, !1075, !1076, !1079, !1082, !1085, !1088, !1089, !1090, !1091, !1092}
!207 = !DIDerivedType(tag: DW_TAG_inheritance, scope: !204, baseType: !208)
!208 = distinct !DICompositeType(tag: DW_TAG_class_type, name: "__basic_string_common<true>", scope: !23, file: !205, line: 583, size: 8, elements: !209, templateParams: !216, identifier: "_ZTSNSt3__121__basic_string_commonILb1EEE")
!209 = !{!210, !215}
!210 = !DISubprogram(name: "__throw_length_error", linkageName: "_ZNKSt3__121__basic_string_commonILb1EE20__throw_length_errorEv", scope: !208, file: !205, line: 565, type: !211, isLocal: false, isDefinition: false, scopeLine: 565, flags: DIFlagProtected | DIFlagPrototyped, isOptimized: false)
!211 = !DISubroutineType(types: !212)
!212 = !{null, !213}
!213 = !DIDerivedType(tag: DW_TAG_pointer_type, baseType: !214, size: 64, flags: DIFlagArtificial | DIFlagObjectPointer)
!214 = !DIDerivedType(tag: DW_TAG_const_type, baseType: !208)
!215 = !DISubprogram(name: "__throw_out_of_range", linkageName: "_ZNKSt3__121__basic_string_commonILb1EE20__throw_out_of_rangeEv", scope: !208, file: !205, line: 566, type: !211, isLocal: false, isDefinition: false, scopeLine: 566, flags: DIFlagProtected | DIFlagPrototyped, isOptimized: false)
!216 = !{!177}
!217 = !DIDerivedType(tag: DW_TAG_member, name: "__short_mask", scope: !204, file: !205, line: 707, baseType: !218, flags: DIFlagStaticMember, extraData: i64 1)
!218 = !DIDerivedType(tag: DW_TAG_const_type, baseType: !219)
!219 = !DIDerivedType(tag: DW_TAG_typedef, name: "size_type", scope: !204, file: !205, line: 640, baseType: !220)
!220 = !DIDerivedType(tag: DW_TAG_typedef, name: "size_type", scope: !221, file: !22, line: 1478, baseType: !362)
!221 = distinct !DICompositeType(tag: DW_TAG_structure_type, name: "allocator_traits<std::__1::allocator<wchar_t> >", scope: !23, file: !22, line: 1467, size: 8, elements: !222, templateParams: !361, identifier: "_ZTSNSt3__116allocator_traitsINS_9allocatorIwEEEE")
!222 = !{!223, !280, !306, !309, !314, !317, !334, !349, !352, !355, !358}
!223 = !DISubprogram(name: "allocate", linkageName: "_ZNSt3__116allocator_traitsINS_9allocatorIwEEE8allocateERS2_m", scope: !221, file: !22, line: 1501, type: !224, isLocal: false, isDefinition: false, scopeLine: 1501, flags: DIFlagPrototyped, isOptimized: false)
!224 = !DISubroutineType(types: !225)
!225 = !{!226, !278, !220}
!226 = !DIDerivedType(tag: DW_TAG_typedef, name: "pointer", scope: !221, file: !22, line: 1472, baseType: !227)
!227 = !DIDerivedType(tag: DW_TAG_typedef, name: "type", scope: !228, file: !22, line: 1020, baseType: !274)
!228 = distinct !DICompositeType(tag: DW_TAG_structure_type, name: "__pointer_type<wchar_t, std::__1::allocator<wchar_t> >", scope: !23, file: !22, line: 1018, size: 8, elements: !171, templateParams: !229, identifier: "_ZTSNSt3__114__pointer_typeIwNS_9allocatorIwEEEE")
!229 = !{!230, !232}
!230 = !DITemplateTypeParameter(name: "_Tp", type: !231)
!231 = !DIBasicType(name: "wchar_t", size: 32, encoding: DW_ATE_signed)
!232 = !DITemplateTypeParameter(name: "_Dp", type: !233)
!233 = distinct !DICompositeType(tag: DW_TAG_class_type, name: "allocator<wchar_t>", scope: !23, file: !22, line: 1720, size: 8, elements: !234, templateParams: !273, identifier: "_ZTSNSt3__19allocatorIwEE")
!234 = !{!235, !239, !248, !256, !264, !267, !270}
!235 = !DISubprogram(name: "allocator", scope: !233, file: !22, line: 1736, type: !236, isLocal: false, isDefinition: false, scopeLine: 1736, flags: DIFlagPublic | DIFlagPrototyped, isOptimized: false)
!236 = !DISubroutineType(types: !237)
!237 = !{null, !238}
!238 = !DIDerivedType(tag: DW_TAG_pointer_type, baseType: !233, size: 64, flags: DIFlagArtificial | DIFlagObjectPointer)
!239 = !DISubprogram(name: "address", linkageName: "_ZNKSt3__19allocatorIwE7addressERw", scope: !233, file: !22, line: 1738, type: !240, isLocal: false, isDefinition: false, scopeLine: 1738, flags: DIFlagPublic | DIFlagPrototyped, isOptimized: false)
!240 = !DISubroutineType(types: !241)
!241 = !{!242, !244, !246}
!242 = !DIDerivedType(tag: DW_TAG_typedef, name: "pointer", scope: !233, file: !22, line: 1725, baseType: !243)
!243 = !DIDerivedType(tag: DW_TAG_pointer_type, baseType: !231, size: 64)
!244 = !DIDerivedType(tag: DW_TAG_pointer_type, baseType: !245, size: 64, flags: DIFlagArtificial | DIFlagObjectPointer)
!245 = !DIDerivedType(tag: DW_TAG_const_type, baseType: !233)
!246 = !DIDerivedType(tag: DW_TAG_typedef, name: "reference", scope: !233, file: !22, line: 1727, baseType: !247)
!247 = !DIDerivedType(tag: DW_TAG_reference_type, baseType: !231, size: 64)
!248 = !DISubprogram(name: "address", linkageName: "_ZNKSt3__19allocatorIwE7addressERKw", scope: !233, file: !22, line: 1740, type: !249, isLocal: false, isDefinition: false, scopeLine: 1740, flags: DIFlagPublic | DIFlagPrototyped, isOptimized: false)
!249 = !DISubroutineType(types: !250)
!250 = !{!251, !244, !254}
!251 = !DIDerivedType(tag: DW_TAG_typedef, name: "const_pointer", scope: !233, file: !22, line: 1726, baseType: !252)
!252 = !DIDerivedType(tag: DW_TAG_pointer_type, baseType: !253, size: 64)
!253 = !DIDerivedType(tag: DW_TAG_const_type, baseType: !231)
!254 = !DIDerivedType(tag: DW_TAG_typedef, name: "const_reference", scope: !233, file: !22, line: 1728, baseType: !255)
!255 = !DIDerivedType(tag: DW_TAG_reference_type, baseType: !253, size: 64)
!256 = !DISubprogram(name: "allocate", linkageName: "_ZNSt3__19allocatorIwE8allocateEmPKv", scope: !233, file: !22, line: 1742, type: !257, isLocal: false, isDefinition: false, scopeLine: 1742, flags: DIFlagPublic | DIFlagPrototyped, isOptimized: false)
!257 = !DISubroutineType(types: !258)
!258 = !{!242, !238, !259, !260}
!259 = !DIDerivedType(tag: DW_TAG_typedef, name: "size_type", file: !22, line: 1723, baseType: !124)
!260 = !DIDerivedType(tag: DW_TAG_typedef, name: "const_pointer", scope: !261, file: !22, line: 704, baseType: !88)
!261 = distinct !DICompositeType(tag: DW_TAG_class_type, name: "allocator<void>", scope: !23, file: !22, line: 700, size: 8, elements: !171, templateParams: !262, identifier: "_ZTSNSt3__19allocatorIvEE")
!262 = !{!263}
!263 = !DITemplateTypeParameter(name: "_Tp", type: null)
!264 = !DISubprogram(name: "deallocate", linkageName: "_ZNSt3__19allocatorIwE10deallocateEPwm", scope: !233, file: !22, line: 1749, type: !265, isLocal: false, isDefinition: false, scopeLine: 1749, flags: DIFlagPublic | DIFlagPrototyped, isOptimized: false)
!265 = !DISubroutineType(types: !266)
!266 = !{null, !238, !242, !259}
!267 = !DISubprogram(name: "max_size", linkageName: "_ZNKSt3__19allocatorIwE8max_sizeEv", scope: !233, file: !22, line: 1751, type: !268, isLocal: false, isDefinition: false, scopeLine: 1751, flags: DIFlagPublic | DIFlagPrototyped, isOptimized: false)
!268 = !DISubroutineType(types: !269)
!269 = !{!259, !244}
!270 = !DISubprogram(name: "destroy", linkageName: "_ZNSt3__19allocatorIwE7destroyEPw", scope: !233, file: !22, line: 1814, type: !271, isLocal: false, isDefinition: false, scopeLine: 1814, flags: DIFlagPublic | DIFlagPrototyped, isOptimized: false)
!271 = !DISubroutineType(types: !272)
!272 = !{null, !238, !242}
!273 = !{!230}
!274 = !DIDerivedType(tag: DW_TAG_typedef, name: "type", scope: !275, file: !22, line: 1006, baseType: !242)
!275 = distinct !DICompositeType(tag: DW_TAG_structure_type, name: "__pointer_type<wchar_t, std::__1::allocator<wchar_t>, true>", scope: !276, file: !22, line: 1004, size: 8, elements: !171, templateParams: !277, identifier: "_ZTSNSt3__118__pointer_type_imp14__pointer_typeIwNS_9allocatorIwEELb1EEE")
!276 = !DINamespace(name: "__pointer_type_imp", scope: !23)
!277 = !{!230, !232, !177}
!278 = !DIDerivedType(tag: DW_TAG_reference_type, baseType: !279, size: 64)
!279 = !DIDerivedType(tag: DW_TAG_typedef, name: "allocator_type", scope: !221, file: !22, line: 1469, baseType: !233)
!280 = !DISubprogram(name: "allocate", linkageName: "_ZNSt3__116allocator_traitsINS_9allocatorIwEEE8allocateERS2_mPKv", scope: !221, file: !22, line: 1504, type: !281, isLocal: false, isDefinition: false, scopeLine: 1504, flags: DIFlagPrototyped, isOptimized: false)
!281 = !DISubroutineType(types: !282)
!282 = !{!226, !278, !220, !283}
!283 = !DIDerivedType(tag: DW_TAG_typedef, name: "const_void_pointer", scope: !221, file: !22, line: 1475, baseType: !284)
!284 = !DIDerivedType(tag: DW_TAG_typedef, name: "type", scope: !285, file: !22, line: 1086, baseType: !290)
!285 = distinct !DICompositeType(tag: DW_TAG_structure_type, name: "__const_void_pointer<wchar_t *, std::__1::allocator<wchar_t>, false>", scope: !23, file: !22, line: 1083, size: 8, elements: !171, templateParams: !286, identifier: "_ZTSNSt3__120__const_void_pointerIPwNS_9allocatorIwEELb0EEE")
!286 = !{!287, !288, !289}
!287 = !DITemplateTypeParameter(name: "_Ptr", type: !243)
!288 = !DITemplateTypeParameter(name: "_Alloc", type: !233)
!289 = !DITemplateValueParameter(type: !60, value: i8 0)
!290 = !DIDerivedType(tag: DW_TAG_typedef, name: "rebind<const void>", scope: !291, file: !22, line: 968, baseType: !88)
!291 = distinct !DICompositeType(tag: DW_TAG_structure_type, name: "pointer_traits<wchar_t *>", scope: !23, file: !22, line: 961, size: 8, elements: !292, templateParams: !305, identifier: "_ZTSNSt3__114pointer_traitsIPwEE")
!292 = !{!293}
!293 = !DISubprogram(name: "pointer_to", linkageName: "_ZNSt3__114pointer_traitsIPwE10pointer_toERw", scope: !291, file: !22, line: 977, type: !294, isLocal: false, isDefinition: false, scopeLine: 977, flags: DIFlagPrototyped, isOptimized: false)
!294 = !DISubroutineType(types: !295)
!295 = !{!296, !297}
!296 = !DIDerivedType(tag: DW_TAG_typedef, name: "pointer", scope: !291, file: !22, line: 963, baseType: !243)
!297 = !DIDerivedType(tag: DW_TAG_reference_type, baseType: !298, size: 64)
!298 = !DIDerivedType(tag: DW_TAG_typedef, name: "type", scope: !299, file: !169, line: 414, baseType: !231)
!299 = distinct !DICompositeType(tag: DW_TAG_structure_type, name: "conditional<false, std::__1::pointer_traits<wchar_t *>::__nat, wchar_t>", scope: !23, file: !169, line: 414, size: 8, elements: !171, templateParams: !300, identifier: "_ZTSNSt3__111conditionalILb0ENS_14pointer_traitsIPwE5__natEwEE")
!300 = !{!301, !302, !304}
!301 = !DITemplateValueParameter(name: "_Bp", type: !60, value: i8 0)
!302 = !DITemplateTypeParameter(name: "_If", type: !303)
!303 = !DICompositeType(tag: DW_TAG_structure_type, name: "__nat", scope: !291, file: !22, line: 974, flags: DIFlagFwdDecl, identifier: "_ZTSNSt3__114pointer_traitsIPwE5__natE")
!304 = !DITemplateTypeParameter(name: "_Then", type: !231)
!305 = !{!287}
!306 = !DISubprogram(name: "deallocate", linkageName: "_ZNSt3__116allocator_traitsINS_9allocatorIwEEE10deallocateERS2_Pwm", scope: !221, file: !22, line: 1509, type: !307, isLocal: false, isDefinition: false, scopeLine: 1509, flags: DIFlagPrototyped, isOptimized: false)
!307 = !DISubroutineType(types: !308)
!308 = !{null, !278, !226, !220}
!309 = !DISubprogram(name: "max_size", linkageName: "_ZNSt3__116allocator_traitsINS_9allocatorIwEEE8max_sizeERKS2_", scope: !221, file: !22, line: 1553, type: !310, isLocal: false, isDefinition: false, scopeLine: 1553, flags: DIFlagPrototyped, isOptimized: false)
!310 = !DISubroutineType(types: !311)
!311 = !{!220, !312}
!312 = !DIDerivedType(tag: DW_TAG_reference_type, baseType: !313, size: 64)
!313 = !DIDerivedType(tag: DW_TAG_const_type, baseType: !279)
!314 = !DISubprogram(name: "select_on_container_copy_construction", linkageName: "_ZNSt3__116allocator_traitsINS_9allocatorIwEEE37select_on_container_copy_constructionERKS2_", scope: !221, file: !22, line: 1558, type: !315, isLocal: false, isDefinition: false, scopeLine: 1558, flags: DIFlagPrototyped, isOptimized: false)
!315 = !DISubroutineType(types: !316)
!316 = !{!279, !312}
!317 = !DISubprogram(name: "__allocate", linkageName: "_ZNSt3__116allocator_traitsINS_9allocatorIwEEE10__allocateERS2_mPKvNS_17integral_constantIbLb1EEE", scope: !221, file: !22, line: 1658, type: !318, isLocal: false, isDefinition: false, scopeLine: 1658, flags: DIFlagPrivate | DIFlagPrototyped, isOptimized: false)
!318 = !DISubroutineType(types: !319)
!319 = !{!226, !278, !220, !283, !320}
!320 = !DIDerivedType(tag: DW_TAG_typedef, name: "true_type", scope: !23, file: !169, line: 528, baseType: !321)
!321 = distinct !DICompositeType(tag: DW_TAG_structure_type, name: "integral_constant<bool, true>", scope: !23, file: !169, line: 504, size: 8, elements: !322, templateParams: !331, identifier: "_ZTSNSt3__117integral_constantIbLb1EEE")
!322 = !{!323, !325}
!323 = !DIDerivedType(tag: DW_TAG_member, name: "value", scope: !321, file: !169, line: 506, baseType: !324, flags: DIFlagStaticMember, extraData: i1 true)
!324 = !DIDerivedType(tag: DW_TAG_const_type, baseType: !60)
!325 = !DISubprogram(name: "operator bool", linkageName: "_ZNKSt3__117integral_constantIbLb1EEcvbEv", scope: !321, file: !169, line: 510, type: !326, isLocal: false, isDefinition: false, scopeLine: 510, flags: DIFlagPrototyped, isOptimized: false)
!326 = !DISubroutineType(types: !327)
!327 = !{!328, !329}
!328 = !DIDerivedType(tag: DW_TAG_typedef, name: "value_type", scope: !321, file: !169, line: 507, baseType: !60)
!329 = !DIDerivedType(tag: DW_TAG_pointer_type, baseType: !330, size: 64, flags: DIFlagArtificial | DIFlagObjectPointer)
!330 = !DIDerivedType(tag: DW_TAG_const_type, baseType: !321)
!331 = !{!332, !333}
!332 = !DITemplateTypeParameter(name: "_Tp", type: !60)
!333 = !DITemplateValueParameter(name: "__v", type: !60, value: i8 1)
!334 = !DISubprogram(name: "__allocate", linkageName: "_ZNSt3__116allocator_traitsINS_9allocatorIwEEE10__allocateERS2_mPKvNS_17integral_constantIbLb0EEE", scope: !221, file: !22, line: 1662, type: !335, isLocal: false, isDefinition: false, scopeLine: 1662, flags: DIFlagPrivate | DIFlagPrototyped, isOptimized: false)
!335 = !DISubroutineType(types: !336)
!336 = !{!226, !278, !220, !283, !337}
!337 = !DIDerivedType(tag: DW_TAG_typedef, name: "false_type", scope: !23, file: !169, line: 529, baseType: !338)
!338 = distinct !DICompositeType(tag: DW_TAG_structure_type, name: "integral_constant<bool, false>", scope: !23, file: !169, line: 504, size: 8, elements: !339, templateParams: !347, identifier: "_ZTSNSt3__117integral_constantIbLb0EEE")
!339 = !{!340, !341}
!340 = !DIDerivedType(tag: DW_TAG_member, name: "value", scope: !338, file: !169, line: 506, baseType: !324, flags: DIFlagStaticMember, extraData: i1 false)
!341 = !DISubprogram(name: "operator bool", linkageName: "_ZNKSt3__117integral_constantIbLb0EEcvbEv", scope: !338, file: !169, line: 510, type: !342, isLocal: false, isDefinition: false, scopeLine: 510, flags: DIFlagPrototyped, isOptimized: false)
!342 = !DISubroutineType(types: !343)
!343 = !{!344, !345}
!344 = !DIDerivedType(tag: DW_TAG_typedef, name: "value_type", scope: !338, file: !169, line: 507, baseType: !60)
!345 = !DIDerivedType(tag: DW_TAG_pointer_type, baseType: !346, size: 64, flags: DIFlagArtificial | DIFlagObjectPointer)
!346 = !DIDerivedType(tag: DW_TAG_const_type, baseType: !338)
!347 = !{!332, !348}
!348 = !DITemplateValueParameter(name: "__v", type: !60, value: i8 0)
!349 = !DISubprogram(name: "__max_size", linkageName: "_ZNSt3__116allocator_traitsINS_9allocatorIwEEE10__max_sizeENS_17integral_constantIbLb1EEERKS2_", scope: !221, file: !22, line: 1691, type: !350, isLocal: false, isDefinition: false, scopeLine: 1691, flags: DIFlagPrivate | DIFlagPrototyped, isOptimized: false)
!350 = !DISubroutineType(types: !351)
!351 = !{!220, !320, !312}
!352 = !DISubprogram(name: "__max_size", linkageName: "_ZNSt3__116allocator_traitsINS_9allocatorIwEEE10__max_sizeENS_17integral_constantIbLb0EEERKS2_", scope: !221, file: !22, line: 1694, type: !353, isLocal: false, isDefinition: false, scopeLine: 1694, flags: DIFlagPrivate | DIFlagPrototyped, isOptimized: false)
!353 = !DISubroutineType(types: !354)
!354 = !{!220, !337, !312}
!355 = !DISubprogram(name: "__select_on_container_copy_construction", linkageName: "_ZNSt3__116allocator_traitsINS_9allocatorIwEEE39__select_on_container_copy_constructionENS_17integral_constantIbLb1EEERKS2_", scope: !221, file: !22, line: 1699, type: !356, isLocal: false, isDefinition: false, scopeLine: 1699, flags: DIFlagPrivate | DIFlagPrototyped, isOptimized: false)
!356 = !DISubroutineType(types: !357)
!357 = !{!279, !320, !312}
!358 = !DISubprogram(name: "__select_on_container_copy_construction", linkageName: "_ZNSt3__116allocator_traitsINS_9allocatorIwEEE39__select_on_container_copy_constructionENS_17integral_constantIbLb0EEERKS2_", scope: !221, file: !22, line: 1703, type: !359, isLocal: false, isDefinition: false, scopeLine: 1703, flags: DIFlagPrivate | DIFlagPrototyped, isOptimized: false)
!359 = !DISubroutineType(types: !360)
!360 = !{!279, !337, !312}
!361 = !{!288}
!362 = !DIDerivedType(tag: DW_TAG_typedef, name: "type", scope: !363, file: !22, line: 1124, baseType: !366)
!363 = distinct !DICompositeType(tag: DW_TAG_structure_type, name: "__size_type<std::__1::allocator<wchar_t>, long, true>", scope: !23, file: !22, line: 1122, size: 8, elements: !171, templateParams: !364, identifier: "_ZTSNSt3__111__size_typeINS_9allocatorIwEElLb1EEE")
!364 = !{!288, !365, !177}
!365 = !DITemplateTypeParameter(name: "_DiffType", type: !38)
!366 = !DIDerivedType(tag: DW_TAG_typedef, name: "size_type", scope: !233, file: !22, line: 1723, baseType: !124)
!367 = !DIDerivedType(tag: DW_TAG_member, name: "__long_mask", scope: !204, file: !205, line: 708, baseType: !218, flags: DIFlagStaticMember, extraData: i64 1)
!368 = !DIDerivedType(tag: DW_TAG_member, name: "__r_", scope: !204, file: !205, line: 745, baseType: !369, size: 192)
!369 = distinct !DICompositeType(tag: DW_TAG_class_type, name: "__compressed_pair<std::__1::basic_string<wchar_t, std::__1::char_traits<wchar_t>, std::__1::allocator<wchar_t> >::__rep, std::__1::allocator<wchar_t> >", scope: !23, file: !22, line: 2111, size: 192, elements: !370, templateParams: !472, identifier: "_ZTSNSt3__117__compressed_pairINS_12basic_stringIwNS_11char_traitsIwEENS_9allocatorIwEEE5__repES5_EE")
!370 = !{!371, !429, !453, !457, !462, !465, !468}
!371 = !DIDerivedType(tag: DW_TAG_inheritance, scope: !369, baseType: !372)
!372 = distinct !DICompositeType(tag: DW_TAG_structure_type, name: "__compressed_pair_elem<std::__1::basic_string<wchar_t, std::__1::char_traits<wchar_t>, std::__1::allocator<wchar_t> >::__rep, 0, false>", scope: !23, file: !22, line: 2037, size: 192, elements: !373, templateParams: !425, identifier: "_ZTSNSt3__122__compressed_pair_elemINS_12basic_stringIwNS_11char_traitsIwEENS_9allocatorIwEEE5__repELi0ELb0EEE")
!373 = !{!374, !408, !412, !417}
!374 = !DIDerivedType(tag: DW_TAG_member, name: "__value_", scope: !372, file: !22, line: 2069, baseType: !375, size: 192, flags: DIFlagPrivate)
!375 = distinct !DICompositeType(tag: DW_TAG_structure_type, name: "__rep", scope: !204, file: !205, line: 735, size: 192, elements: !376, identifier: "_ZTSNSt3__112basic_stringIwNS_11char_traitsIwEENS_9allocatorIwEEE5__repE")
!376 = !{!377}
!377 = !DIDerivedType(tag: DW_TAG_member, scope: !375, file: !205, line: 737, baseType: !378, size: 192)
!378 = distinct !DICompositeType(tag: DW_TAG_union_type, scope: !375, file: !205, line: 737, size: 192, elements: !379, identifier: "_ZTSNSt3__112basic_stringIwNS_11char_traitsIwEENS_9allocatorIwEEE5__repUt_E")
!379 = !{!380, !387, !401}
!380 = !DIDerivedType(tag: DW_TAG_member, name: "__l", scope: !378, file: !205, line: 739, baseType: !381, size: 192)
!381 = distinct !DICompositeType(tag: DW_TAG_structure_type, name: "__long", scope: !204, file: !205, line: 696, size: 192, elements: !382, identifier: "_ZTSNSt3__112basic_stringIwNS_11char_traitsIwEENS_9allocatorIwEEE6__longE")
!382 = !{!383, !384, !385}
!383 = !DIDerivedType(tag: DW_TAG_member, name: "__cap_", scope: !381, file: !205, line: 698, baseType: !219, size: 64)
!384 = !DIDerivedType(tag: DW_TAG_member, name: "__size_", scope: !381, file: !205, line: 699, baseType: !219, size: 64, offset: 64)
!385 = !DIDerivedType(tag: DW_TAG_member, name: "__data_", scope: !381, file: !205, line: 700, baseType: !386, size: 64, offset: 128)
!386 = !DIDerivedType(tag: DW_TAG_typedef, name: "pointer", scope: !204, file: !205, line: 644, baseType: !226)
!387 = !DIDerivedType(tag: DW_TAG_member, name: "__s", scope: !378, file: !205, line: 740, baseType: !388, size: 192)
!388 = distinct !DICompositeType(tag: DW_TAG_structure_type, name: "__short", scope: !204, file: !205, line: 714, size: 192, elements: !389, identifier: "_ZTSNSt3__112basic_stringIwNS_11char_traitsIwEENS_9allocatorIwEEE7__shortE")
!389 = !{!390, !397}
!390 = !DIDerivedType(tag: DW_TAG_member, scope: !388, file: !205, line: 716, baseType: !391, size: 32)
!391 = distinct !DICompositeType(tag: DW_TAG_union_type, scope: !388, file: !205, line: 716, size: 32, elements: !392, identifier: "_ZTSNSt3__112basic_stringIwNS_11char_traitsIwEENS_9allocatorIwEEE7__shortUt_E")
!392 = !{!393, !395}
!393 = !DIDerivedType(tag: DW_TAG_member, name: "__size_", scope: !391, file: !205, line: 718, baseType: !394, size: 8)
!394 = !DIBasicType(name: "unsigned char", size: 8, encoding: DW_ATE_unsigned_char)
!395 = !DIDerivedType(tag: DW_TAG_member, name: "__lx", scope: !391, file: !205, line: 719, baseType: !396, size: 32)
!396 = !DIDerivedType(tag: DW_TAG_typedef, name: "value_type", scope: !204, file: !205, line: 637, baseType: !231)
!397 = !DIDerivedType(tag: DW_TAG_member, name: "__data_", scope: !388, file: !205, line: 721, baseType: !398, size: 160, offset: 32)
!398 = !DICompositeType(tag: DW_TAG_array_type, baseType: !396, size: 160, elements: !399)
!399 = !{!400}
!400 = !DISubrange(count: 5)
!401 = !DIDerivedType(tag: DW_TAG_member, name: "__r", scope: !378, file: !205, line: 741, baseType: !402, size: 192)
!402 = distinct !DICompositeType(tag: DW_TAG_structure_type, name: "__raw", scope: !204, file: !205, line: 730, size: 192, elements: !403, identifier: "_ZTSNSt3__112basic_stringIwNS_11char_traitsIwEENS_9allocatorIwEEE5__rawE")
!403 = !{!404}
!404 = !DIDerivedType(tag: DW_TAG_member, name: "__words", scope: !402, file: !205, line: 732, baseType: !405, size: 192)
!405 = !DICompositeType(tag: DW_TAG_array_type, baseType: !219, size: 192, elements: !406)
!406 = !{!407}
!407 = !DISubrange(count: 3)
!408 = !DISubprogram(name: "__compressed_pair_elem", scope: !372, file: !22, line: 2043, type: !409, isLocal: false, isDefinition: false, scopeLine: 2043, flags: DIFlagPrototyped, isOptimized: false)
!409 = !DISubroutineType(types: !410)
!410 = !{null, !411}
!411 = !DIDerivedType(tag: DW_TAG_pointer_type, baseType: !372, size: 64, flags: DIFlagArtificial | DIFlagObjectPointer)
!412 = !DISubprogram(name: "__get", linkageName: "_ZNSt3__122__compressed_pair_elemINS_12basic_stringIwNS_11char_traitsIwEENS_9allocatorIwEEE5__repELi0ELb0EE5__getEv", scope: !372, file: !22, line: 2064, type: !413, isLocal: false, isDefinition: false, scopeLine: 2064, flags: DIFlagPrototyped, isOptimized: false)
!413 = !DISubroutineType(types: !414)
!414 = !{!415, !411}
!415 = !DIDerivedType(tag: DW_TAG_typedef, name: "reference", scope: !372, file: !22, line: 2039, baseType: !416)
!416 = !DIDerivedType(tag: DW_TAG_reference_type, baseType: !375, size: 64)
!417 = !DISubprogram(name: "__get", linkageName: "_ZNKSt3__122__compressed_pair_elemINS_12basic_stringIwNS_11char_traitsIwEENS_9allocatorIwEEE5__repELi0ELb0EE5__getEv", scope: !372, file: !22, line: 2066, type: !418, isLocal: false, isDefinition: false, scopeLine: 2066, flags: DIFlagPrototyped, isOptimized: false)
!418 = !DISubroutineType(types: !419)
!419 = !{!420, !423}
!420 = !DIDerivedType(tag: DW_TAG_typedef, name: "const_reference", scope: !372, file: !22, line: 2040, baseType: !421)
!421 = !DIDerivedType(tag: DW_TAG_reference_type, baseType: !422, size: 64)
!422 = !DIDerivedType(tag: DW_TAG_const_type, baseType: !375)
!423 = !DIDerivedType(tag: DW_TAG_pointer_type, baseType: !424, size: 64, flags: DIFlagArtificial | DIFlagObjectPointer)
!424 = !DIDerivedType(tag: DW_TAG_const_type, baseType: !372)
!425 = !{!426, !427, !428}
!426 = !DITemplateTypeParameter(name: "_Tp", type: !375)
!427 = !DITemplateValueParameter(name: "_Idx", type: !14, value: i32 0)
!428 = !DITemplateValueParameter(name: "_CanBeEmptyBase", type: !60, value: i8 0)
!429 = !DIDerivedType(tag: DW_TAG_inheritance, scope: !369, baseType: !430)
!430 = distinct !DICompositeType(tag: DW_TAG_structure_type, name: "__compressed_pair_elem<std::__1::allocator<wchar_t>, 1, true>", scope: !23, file: !22, line: 2073, size: 8, elements: !431, templateParams: !449, identifier: "_ZTSNSt3__122__compressed_pair_elemINS_9allocatorIwEELi1ELb1EEE")
!431 = !{!432, !433, !437, !442}
!432 = !DIDerivedType(tag: DW_TAG_inheritance, scope: !430, baseType: !233, flags: DIFlagPrivate)
!433 = !DISubprogram(name: "__compressed_pair_elem", scope: !430, file: !22, line: 2080, type: !434, isLocal: false, isDefinition: false, scopeLine: 2080, flags: DIFlagPrototyped, isOptimized: false)
!434 = !DISubroutineType(types: !435)
!435 = !{null, !436}
!436 = !DIDerivedType(tag: DW_TAG_pointer_type, baseType: !430, size: 64, flags: DIFlagArtificial | DIFlagObjectPointer)
!437 = !DISubprogram(name: "__get", linkageName: "_ZNSt3__122__compressed_pair_elemINS_9allocatorIwEELi1ELb1EE5__getEv", scope: !430, file: !22, line: 2102, type: !438, isLocal: false, isDefinition: false, scopeLine: 2102, flags: DIFlagPrototyped, isOptimized: false)
!438 = !DISubroutineType(types: !439)
!439 = !{!440, !436}
!440 = !DIDerivedType(tag: DW_TAG_typedef, name: "reference", scope: !430, file: !22, line: 2075, baseType: !441)
!441 = !DIDerivedType(tag: DW_TAG_reference_type, baseType: !233, size: 64)
!442 = !DISubprogram(name: "__get", linkageName: "_ZNKSt3__122__compressed_pair_elemINS_9allocatorIwEELi1ELb1EE5__getEv", scope: !430, file: !22, line: 2104, type: !443, isLocal: false, isDefinition: false, scopeLine: 2104, flags: DIFlagPrototyped, isOptimized: false)
!443 = !DISubroutineType(types: !444)
!444 = !{!445, !447}
!445 = !DIDerivedType(tag: DW_TAG_typedef, name: "const_reference", scope: !430, file: !22, line: 2076, baseType: !446)
!446 = !DIDerivedType(tag: DW_TAG_reference_type, baseType: !245, size: 64)
!447 = !DIDerivedType(tag: DW_TAG_pointer_type, baseType: !448, size: 64, flags: DIFlagArtificial | DIFlagObjectPointer)
!448 = !DIDerivedType(tag: DW_TAG_const_type, baseType: !430)
!449 = !{!450, !451, !452}
!450 = !DITemplateTypeParameter(name: "_Tp", type: !233)
!451 = !DITemplateValueParameter(name: "_Idx", type: !14, value: i32 1)
!452 = !DITemplateValueParameter(name: "_CanBeEmptyBase", type: !60, value: i8 1)
!453 = !DISubprogram(name: "first", linkageName: "_ZNSt3__117__compressed_pairINS_12basic_stringIwNS_11char_traitsIwEENS_9allocatorIwEEE5__repES5_E5firstEv", scope: !369, file: !22, line: 2179, type: !454, isLocal: false, isDefinition: false, scopeLine: 2179, flags: DIFlagPublic | DIFlagPrototyped, isOptimized: false)
!454 = !DISubroutineType(types: !455)
!455 = !{!415, !456}
!456 = !DIDerivedType(tag: DW_TAG_pointer_type, baseType: !369, size: 64, flags: DIFlagArtificial | DIFlagObjectPointer)
!457 = !DISubprogram(name: "first", linkageName: "_ZNKSt3__117__compressed_pairINS_12basic_stringIwNS_11char_traitsIwEENS_9allocatorIwEEE5__repES5_E5firstEv", scope: !369, file: !22, line: 2184, type: !458, isLocal: false, isDefinition: false, scopeLine: 2184, flags: DIFlagPublic | DIFlagPrototyped, isOptimized: false)
!458 = !DISubroutineType(types: !459)
!459 = !{!420, !460}
!460 = !DIDerivedType(tag: DW_TAG_pointer_type, baseType: !461, size: 64, flags: DIFlagArtificial | DIFlagObjectPointer)
!461 = !DIDerivedType(tag: DW_TAG_const_type, baseType: !369)
!462 = !DISubprogram(name: "second", linkageName: "_ZNSt3__117__compressed_pairINS_12basic_stringIwNS_11char_traitsIwEENS_9allocatorIwEEE5__repES5_E6secondEv", scope: !369, file: !22, line: 2189, type: !463, isLocal: false, isDefinition: false, scopeLine: 2189, flags: DIFlagPublic | DIFlagPrototyped, isOptimized: false)
!463 = !DISubroutineType(types: !464)
!464 = !{!440, !456}
!465 = !DISubprogram(name: "second", linkageName: "_ZNKSt3__117__compressed_pairINS_12basic_stringIwNS_11char_traitsIwEENS_9allocatorIwEEE5__repES5_E6secondEv", scope: !369, file: !22, line: 2194, type: !466, isLocal: false, isDefinition: false, scopeLine: 2194, flags: DIFlagPublic | DIFlagPrototyped, isOptimized: false)
!466 = !DISubroutineType(types: !467)
!467 = !{!445, !460}
!468 = !DISubprogram(name: "swap", linkageName: "_ZNSt3__117__compressed_pairINS_12basic_stringIwNS_11char_traitsIwEENS_9allocatorIwEEE5__repES5_E4swapERS8_", scope: !369, file: !22, line: 2199, type: !469, isLocal: false, isDefinition: false, scopeLine: 2199, flags: DIFlagPublic | DIFlagPrototyped, isOptimized: false)
!469 = !DISubroutineType(types: !470)
!470 = !{null, !456, !471}
!471 = !DIDerivedType(tag: DW_TAG_reference_type, baseType: !369, size: 64)
!472 = !{!473, !474}
!473 = !DITemplateTypeParameter(name: "_T1", type: !375)
!474 = !DITemplateTypeParameter(name: "_T2", type: !233)
!475 = !DIDerivedType(tag: DW_TAG_member, name: "npos", scope: !204, file: !205, line: 748, baseType: !218, flags: DIFlagPublic | DIFlagStaticMember, extraData: i64 -1)
!476 = !DISubprogram(name: "basic_string", scope: !204, file: !205, line: 750, type: !477, isLocal: false, isDefinition: false, scopeLine: 750, flags: DIFlagPublic | DIFlagPrototyped, isOptimized: false)
!477 = !DISubroutineType(types: !478)
!478 = !{null, !479}
!479 = !DIDerivedType(tag: DW_TAG_pointer_type, baseType: !204, size: 64, flags: DIFlagArtificial | DIFlagObjectPointer)
!480 = !DISubprogram(name: "basic_string", scope: !204, file: !205, line: 753, type: !481, isLocal: false, isDefinition: false, scopeLine: 753, flags: DIFlagPublic | DIFlagExplicit | DIFlagPrototyped, isOptimized: false)
!481 = !DISubroutineType(types: !482)
!482 = !{null, !479, !483}
!483 = !DIDerivedType(tag: DW_TAG_reference_type, baseType: !484, size: 64)
!484 = !DIDerivedType(tag: DW_TAG_const_type, baseType: !485)
!485 = !DIDerivedType(tag: DW_TAG_typedef, name: "allocator_type", scope: !204, file: !205, line: 638, baseType: !233)
!486 = !DISubprogram(name: "basic_string", scope: !204, file: !205, line: 760, type: !487, isLocal: false, isDefinition: false, scopeLine: 760, flags: DIFlagPublic | DIFlagPrototyped, isOptimized: false)
!487 = !DISubroutineType(types: !488)
!488 = !{null, !479, !489}
!489 = !DIDerivedType(tag: DW_TAG_reference_type, baseType: !490, size: 64)
!490 = !DIDerivedType(tag: DW_TAG_const_type, baseType: !204)
!491 = !DISubprogram(name: "basic_string", scope: !204, file: !205, line: 761, type: !492, isLocal: false, isDefinition: false, scopeLine: 761, flags: DIFlagPublic | DIFlagPrototyped, isOptimized: false)
!492 = !DISubroutineType(types: !493)
!493 = !{null, !479, !489, !483}
!494 = !DISubprogram(name: "basic_string", scope: !204, file: !205, line: 765, type: !495, isLocal: false, isDefinition: false, scopeLine: 765, flags: DIFlagPublic | DIFlagPrototyped, isOptimized: false)
!495 = !DISubroutineType(types: !496)
!496 = !{null, !479, !497}
!497 = !DIDerivedType(tag: DW_TAG_rvalue_reference_type, baseType: !204, size: 64)
!498 = !DISubprogram(name: "basic_string", scope: !204, file: !205, line: 773, type: !499, isLocal: false, isDefinition: false, scopeLine: 773, flags: DIFlagPublic | DIFlagPrototyped, isOptimized: false)
!499 = !DISubroutineType(types: !500)
!500 = !{null, !479, !497, !483}
!501 = !DISubprogram(name: "basic_string", scope: !204, file: !205, line: 775, type: !502, isLocal: false, isDefinition: false, scopeLine: 775, flags: DIFlagPublic | DIFlagPrototyped, isOptimized: false)
!502 = !DISubroutineType(types: !503)
!503 = !{null, !479, !252}
!504 = !DISubprogram(name: "basic_string", scope: !204, file: !205, line: 777, type: !505, isLocal: false, isDefinition: false, scopeLine: 777, flags: DIFlagPublic | DIFlagPrototyped, isOptimized: false)
!505 = !DISubroutineType(types: !506)
!506 = !{null, !479, !252, !446}
!507 = !DISubprogram(name: "basic_string", scope: !204, file: !205, line: 779, type: !508, isLocal: false, isDefinition: false, scopeLine: 779, flags: DIFlagPublic | DIFlagPrototyped, isOptimized: false)
!508 = !DISubroutineType(types: !509)
!509 = !{null, !479, !252, !219}
!510 = !DISubprogram(name: "basic_string", scope: !204, file: !205, line: 781, type: !511, isLocal: false, isDefinition: false, scopeLine: 781, flags: DIFlagPublic | DIFlagPrototyped, isOptimized: false)
!511 = !DISubroutineType(types: !512)
!512 = !{null, !479, !252, !219, !446}
!513 = !DISubprogram(name: "basic_string", scope: !204, file: !205, line: 783, type: !514, isLocal: false, isDefinition: false, scopeLine: 783, flags: DIFlagPublic | DIFlagPrototyped, isOptimized: false)
!514 = !DISubroutineType(types: !515)
!515 = !{null, !479, !219, !231}
!516 = !DISubprogram(name: "basic_string", scope: !204, file: !205, line: 785, type: !517, isLocal: false, isDefinition: false, scopeLine: 785, flags: DIFlagPublic | DIFlagPrototyped, isOptimized: false)
!517 = !DISubroutineType(types: !518)
!518 = !{null, !479, !219, !231, !446}
!519 = !DISubprogram(name: "basic_string", scope: !204, file: !205, line: 786, type: !520, isLocal: false, isDefinition: false, scopeLine: 786, flags: DIFlagPublic | DIFlagPrototyped, isOptimized: false)
!520 = !DISubroutineType(types: !521)
!521 = !{null, !479, !489, !219, !219, !446}
!522 = !DISubprogram(name: "basic_string", scope: !204, file: !205, line: 789, type: !523, isLocal: false, isDefinition: false, scopeLine: 789, flags: DIFlagPublic | DIFlagPrototyped, isOptimized: false)
!523 = !DISubroutineType(types: !524)
!524 = !{null, !479, !489, !219, !446}
!525 = !DISubprogram(name: "basic_string", scope: !204, file: !205, line: 797, type: !526, isLocal: false, isDefinition: false, scopeLine: 797, flags: DIFlagPublic | DIFlagExplicit | DIFlagPrototyped, isOptimized: false)
!526 = !DISubroutineType(types: !527)
!527 = !{null, !479, !528}
!528 = !DIDerivedType(tag: DW_TAG_typedef, name: "__self_view", scope: !204, file: !205, line: 635, baseType: !529)
!529 = distinct !DICompositeType(tag: DW_TAG_class_type, name: "basic_string_view<wchar_t, std::__1::char_traits<wchar_t> >", scope: !23, file: !530, line: 187, size: 128, elements: !531, templateParams: !661, identifier: "_ZTSNSt3__117basic_string_viewIwNS_11char_traitsIwEEEE")
!530 = !DIFile(filename: "/Applications/Xcode.app/Contents/Developer/Toolchains/XcodeDefault.xctoolchain/usr/include/c++/v1/string_view", directory: "/Users/ejiang/Projects/lls/ac/asserts")
!531 = !{!532, !535, !539, !540, !544, !549, !553, !556, !559, !565, !566, !567, !568, !574, !575, !576, !577, !580, !581, !582, !585, !589, !590, !593, !594, !597, !600, !601, !604, !608, !611, !614, !617, !620, !623, !626, !629, !632, !635, !638, !641, !642, !643, !644, !645, !646, !647, !648, !649, !650, !651, !652, !653, !654, !655, !656, !657, !658, !659, !660}
!532 = !DIDerivedType(tag: DW_TAG_member, name: "npos", scope: !529, file: !530, line: 202, baseType: !533, flags: DIFlagPublic | DIFlagStaticMember, extraData: i64 -1)
!533 = !DIDerivedType(tag: DW_TAG_const_type, baseType: !534)
!534 = !DIDerivedType(tag: DW_TAG_typedef, name: "size_type", file: !530, line: 200, baseType: !124)
!535 = !DIDerivedType(tag: DW_TAG_member, name: "__data", scope: !529, file: !530, line: 569, baseType: !536, size: 64)
!536 = !DIDerivedType(tag: DW_TAG_pointer_type, baseType: !537, size: 64)
!537 = !DIDerivedType(tag: DW_TAG_const_type, baseType: !538)
!538 = !DIDerivedType(tag: DW_TAG_typedef, name: "value_type", scope: !529, file: !530, line: 191, baseType: !231)
!539 = !DIDerivedType(tag: DW_TAG_member, name: "__size", scope: !529, file: !530, line: 570, baseType: !534, size: 64, offset: 64)
!540 = !DISubprogram(name: "basic_string_view", scope: !529, file: !530, line: 210, type: !541, isLocal: false, isDefinition: false, scopeLine: 210, flags: DIFlagPublic | DIFlagPrototyped, isOptimized: false)
!541 = !DISubroutineType(types: !542)
!542 = !{null, !543}
!543 = !DIDerivedType(tag: DW_TAG_pointer_type, baseType: !529, size: 64, flags: DIFlagArtificial | DIFlagObjectPointer)
!544 = !DISubprogram(name: "basic_string_view", scope: !529, file: !530, line: 213, type: !545, isLocal: false, isDefinition: false, scopeLine: 213, flags: DIFlagPublic | DIFlagPrototyped, isOptimized: false)
!545 = !DISubroutineType(types: !546)
!546 = !{null, !543, !547}
!547 = !DIDerivedType(tag: DW_TAG_reference_type, baseType: !548, size: 64)
!548 = !DIDerivedType(tag: DW_TAG_const_type, baseType: !529)
!549 = !DISubprogram(name: "operator=", linkageName: "_ZNSt3__117basic_string_viewIwNS_11char_traitsIwEEEaSERKS3_", scope: !529, file: !530, line: 216, type: !550, isLocal: false, isDefinition: false, scopeLine: 216, flags: DIFlagPublic | DIFlagPrototyped, isOptimized: false)
!550 = !DISubroutineType(types: !551)
!551 = !{!552, !543, !547}
!552 = !DIDerivedType(tag: DW_TAG_reference_type, baseType: !529, size: 64)
!553 = !DISubprogram(name: "basic_string_view", scope: !529, file: !530, line: 219, type: !554, isLocal: false, isDefinition: false, scopeLine: 219, flags: DIFlagPublic | DIFlagPrototyped, isOptimized: false)
!554 = !DISubroutineType(types: !555)
!555 = !{null, !543, !252, !534}
!556 = !DISubprogram(name: "basic_string_view", scope: !529, file: !530, line: 228, type: !557, isLocal: false, isDefinition: false, scopeLine: 228, flags: DIFlagPublic | DIFlagPrototyped, isOptimized: false)
!557 = !DISubroutineType(types: !558)
!558 = !{null, !543, !252}
!559 = !DISubprogram(name: "begin", linkageName: "_ZNKSt3__117basic_string_viewIwNS_11char_traitsIwEEE5beginEv", scope: !529, file: !530, line: 233, type: !560, isLocal: false, isDefinition: false, scopeLine: 233, flags: DIFlagPublic | DIFlagPrototyped, isOptimized: false)
!560 = !DISubroutineType(types: !561)
!561 = !{!562, !564}
!562 = !DIDerivedType(tag: DW_TAG_typedef, name: "const_iterator", scope: !529, file: !530, line: 196, baseType: !563)
!563 = !DIDerivedType(tag: DW_TAG_typedef, name: "const_pointer", scope: !529, file: !530, line: 193, baseType: !252)
!564 = !DIDerivedType(tag: DW_TAG_pointer_type, baseType: !548, size: 64, flags: DIFlagArtificial | DIFlagObjectPointer)
!565 = !DISubprogram(name: "end", linkageName: "_ZNKSt3__117basic_string_viewIwNS_11char_traitsIwEEE3endEv", scope: !529, file: !530, line: 236, type: !560, isLocal: false, isDefinition: false, scopeLine: 236, flags: DIFlagPublic | DIFlagPrototyped, isOptimized: false)
!566 = !DISubprogram(name: "cbegin", linkageName: "_ZNKSt3__117basic_string_viewIwNS_11char_traitsIwEEE6cbeginEv", scope: !529, file: !530, line: 239, type: !560, isLocal: false, isDefinition: false, scopeLine: 239, flags: DIFlagPublic | DIFlagPrototyped, isOptimized: false)
!567 = !DISubprogram(name: "cend", linkageName: "_ZNKSt3__117basic_string_viewIwNS_11char_traitsIwEEE4cendEv", scope: !529, file: !530, line: 242, type: !560, isLocal: false, isDefinition: false, scopeLine: 242, flags: DIFlagPublic | DIFlagPrototyped, isOptimized: false)
!568 = !DISubprogram(name: "rbegin", linkageName: "_ZNKSt3__117basic_string_viewIwNS_11char_traitsIwEEE6rbeginEv", scope: !529, file: !530, line: 245, type: !569, isLocal: false, isDefinition: false, scopeLine: 245, flags: DIFlagPublic | DIFlagPrototyped, isOptimized: false)
!569 = !DISubroutineType(types: !570)
!570 = !{!571, !564}
!571 = !DIDerivedType(tag: DW_TAG_typedef, name: "const_reverse_iterator", scope: !529, file: !530, line: 198, baseType: !572)
!572 = !DICompositeType(tag: DW_TAG_class_type, name: "reverse_iterator<const wchar_t *>", scope: !23, file: !573, line: 636, flags: DIFlagFwdDecl, identifier: "_ZTSNSt3__116reverse_iteratorIPKwEE")
!573 = !DIFile(filename: "/Applications/Xcode.app/Contents/Developer/Toolchains/XcodeDefault.xctoolchain/usr/include/c++/v1/iterator", directory: "/Users/ejiang/Projects/lls/ac/asserts")
!574 = !DISubprogram(name: "rend", linkageName: "_ZNKSt3__117basic_string_viewIwNS_11char_traitsIwEEE4rendEv", scope: !529, file: !530, line: 248, type: !569, isLocal: false, isDefinition: false, scopeLine: 248, flags: DIFlagPublic | DIFlagPrototyped, isOptimized: false)
!575 = !DISubprogram(name: "crbegin", linkageName: "_ZNKSt3__117basic_string_viewIwNS_11char_traitsIwEEE7crbeginEv", scope: !529, file: !530, line: 251, type: !569, isLocal: false, isDefinition: false, scopeLine: 251, flags: DIFlagPublic | DIFlagPrototyped, isOptimized: false)
!576 = !DISubprogram(name: "crend", linkageName: "_ZNKSt3__117basic_string_viewIwNS_11char_traitsIwEEE5crendEv", scope: !529, file: !530, line: 254, type: !569, isLocal: false, isDefinition: false, scopeLine: 254, flags: DIFlagPublic | DIFlagPrototyped, isOptimized: false)
!577 = !DISubprogram(name: "size", linkageName: "_ZNKSt3__117basic_string_viewIwNS_11char_traitsIwEEE4sizeEv", scope: !529, file: !530, line: 258, type: !578, isLocal: false, isDefinition: false, scopeLine: 258, flags: DIFlagPublic | DIFlagPrototyped, isOptimized: false)
!578 = !DISubroutineType(types: !579)
!579 = !{!534, !564}
!580 = !DISubprogram(name: "length", linkageName: "_ZNKSt3__117basic_string_viewIwNS_11char_traitsIwEEE6lengthEv", scope: !529, file: !530, line: 261, type: !578, isLocal: false, isDefinition: false, scopeLine: 261, flags: DIFlagPublic | DIFlagPrototyped, isOptimized: false)
!581 = !DISubprogram(name: "max_size", linkageName: "_ZNKSt3__117basic_string_viewIwNS_11char_traitsIwEEE8max_sizeEv", scope: !529, file: !530, line: 264, type: !578, isLocal: false, isDefinition: false, scopeLine: 264, flags: DIFlagPublic | DIFlagPrototyped, isOptimized: false)
!582 = !DISubprogram(name: "empty", linkageName: "_ZNKSt3__117basic_string_viewIwNS_11char_traitsIwEEE5emptyEv", scope: !529, file: !530, line: 267, type: !583, isLocal: false, isDefinition: false, scopeLine: 267, flags: DIFlagPublic | DIFlagPrototyped, isOptimized: false)
!583 = !DISubroutineType(types: !584)
!584 = !{!60, !564}
!585 = !DISubprogram(name: "operator[]", linkageName: "_ZNKSt3__117basic_string_viewIwNS_11char_traitsIwEEEixEm", scope: !529, file: !530, line: 271, type: !586, isLocal: false, isDefinition: false, scopeLine: 271, flags: DIFlagPublic | DIFlagPrototyped, isOptimized: false)
!586 = !DISubroutineType(types: !587)
!587 = !{!588, !564, !534}
!588 = !DIDerivedType(tag: DW_TAG_typedef, name: "const_reference", scope: !529, file: !530, line: 195, baseType: !255)
!589 = !DISubprogram(name: "at", linkageName: "_ZNKSt3__117basic_string_viewIwNS_11char_traitsIwEEE2atEm", scope: !529, file: !530, line: 274, type: !586, isLocal: false, isDefinition: false, scopeLine: 274, flags: DIFlagPublic | DIFlagPrototyped, isOptimized: false)
!590 = !DISubprogram(name: "front", linkageName: "_ZNKSt3__117basic_string_viewIwNS_11char_traitsIwEEE5frontEv", scope: !529, file: !530, line: 282, type: !591, isLocal: false, isDefinition: false, scopeLine: 282, flags: DIFlagPublic | DIFlagPrototyped, isOptimized: false)
!591 = !DISubroutineType(types: !592)
!592 = !{!588, !564}
!593 = !DISubprogram(name: "back", linkageName: "_ZNKSt3__117basic_string_viewIwNS_11char_traitsIwEEE4backEv", scope: !529, file: !530, line: 288, type: !591, isLocal: false, isDefinition: false, scopeLine: 288, flags: DIFlagPublic | DIFlagPrototyped, isOptimized: false)
!594 = !DISubprogram(name: "data", linkageName: "_ZNKSt3__117basic_string_viewIwNS_11char_traitsIwEEE4dataEv", scope: !529, file: !530, line: 294, type: !595, isLocal: false, isDefinition: false, scopeLine: 294, flags: DIFlagPublic | DIFlagPrototyped, isOptimized: false)
!595 = !DISubroutineType(types: !596)
!596 = !{!563, !564}
!597 = !DISubprogram(name: "remove_prefix", linkageName: "_ZNSt3__117basic_string_viewIwNS_11char_traitsIwEEE13remove_prefixEm", scope: !529, file: !530, line: 298, type: !598, isLocal: false, isDefinition: false, scopeLine: 298, flags: DIFlagPublic | DIFlagPrototyped, isOptimized: false)
!598 = !DISubroutineType(types: !599)
!599 = !{null, !543, !534}
!600 = !DISubprogram(name: "remove_suffix", linkageName: "_ZNSt3__117basic_string_viewIwNS_11char_traitsIwEEE13remove_suffixEm", scope: !529, file: !530, line: 306, type: !598, isLocal: false, isDefinition: false, scopeLine: 306, flags: DIFlagPublic | DIFlagPrototyped, isOptimized: false)
!601 = !DISubprogram(name: "swap", linkageName: "_ZNSt3__117basic_string_viewIwNS_11char_traitsIwEEE4swapERS3_", scope: !529, file: !530, line: 313, type: !602, isLocal: false, isDefinition: false, scopeLine: 313, flags: DIFlagPublic | DIFlagPrototyped, isOptimized: false)
!602 = !DISubroutineType(types: !603)
!603 = !{null, !543, !552}
!604 = !DISubprogram(name: "copy", linkageName: "_ZNKSt3__117basic_string_viewIwNS_11char_traitsIwEEE4copyEPwmm", scope: !529, file: !530, line: 325, type: !605, isLocal: false, isDefinition: false, scopeLine: 325, flags: DIFlagPublic | DIFlagPrototyped, isOptimized: false)
!605 = !DISubroutineType(types: !606)
!606 = !{!607, !564, !243, !534, !534}
!607 = !DIDerivedType(tag: DW_TAG_typedef, name: "size_type", scope: !529, file: !530, line: 200, baseType: !124)
!608 = !DISubprogram(name: "substr", linkageName: "_ZNKSt3__117basic_string_viewIwNS_11char_traitsIwEEE6substrEmm", scope: !529, file: !530, line: 335, type: !609, isLocal: false, isDefinition: false, scopeLine: 335, flags: DIFlagPublic | DIFlagPrototyped, isOptimized: false)
!609 = !DISubroutineType(types: !610)
!610 = !{!529, !564, !534, !534}
!611 = !DISubprogram(name: "compare", linkageName: "_ZNKSt3__117basic_string_viewIwNS_11char_traitsIwEEE7compareES3_", scope: !529, file: !530, line: 342, type: !612, isLocal: false, isDefinition: false, scopeLine: 342, flags: DIFlagPublic | DIFlagPrototyped, isOptimized: false)
!612 = !DISubroutineType(types: !613)
!613 = !{!14, !564, !529}
!614 = !DISubprogram(name: "compare", linkageName: "_ZNKSt3__117basic_string_viewIwNS_11char_traitsIwEEE7compareEmmS3_", scope: !529, file: !530, line: 352, type: !615, isLocal: false, isDefinition: false, scopeLine: 352, flags: DIFlagPublic | DIFlagPrototyped, isOptimized: false)
!615 = !DISubroutineType(types: !616)
!616 = !{!14, !564, !534, !534, !529}
!617 = !DISubprogram(name: "compare", linkageName: "_ZNKSt3__117basic_string_viewIwNS_11char_traitsIwEEE7compareEmmS3_mm", scope: !529, file: !530, line: 358, type: !618, isLocal: false, isDefinition: false, scopeLine: 358, flags: DIFlagPublic | DIFlagPrototyped, isOptimized: false)
!618 = !DISubroutineType(types: !619)
!619 = !{!14, !564, !534, !534, !529, !534, !534}
!620 = !DISubprogram(name: "compare", linkageName: "_ZNKSt3__117basic_string_viewIwNS_11char_traitsIwEEE7compareEPKw", scope: !529, file: !530, line: 365, type: !621, isLocal: false, isDefinition: false, scopeLine: 365, flags: DIFlagPublic | DIFlagPrototyped, isOptimized: false)
!621 = !DISubroutineType(types: !622)
!622 = !{!14, !564, !252}
!623 = !DISubprogram(name: "compare", linkageName: "_ZNKSt3__117basic_string_viewIwNS_11char_traitsIwEEE7compareEmmPKw", scope: !529, file: !530, line: 371, type: !624, isLocal: false, isDefinition: false, scopeLine: 371, flags: DIFlagPublic | DIFlagPrototyped, isOptimized: false)
!624 = !DISubroutineType(types: !625)
!625 = !{!14, !564, !534, !534, !252}
!626 = !DISubprogram(name: "compare", linkageName: "_ZNKSt3__117basic_string_viewIwNS_11char_traitsIwEEE7compareEmmPKwm", scope: !529, file: !530, line: 377, type: !627, isLocal: false, isDefinition: false, scopeLine: 377, flags: DIFlagPublic | DIFlagPrototyped, isOptimized: false)
!627 = !DISubroutineType(types: !628)
!628 = !{!14, !564, !534, !534, !252, !534}
!629 = !DISubprogram(name: "find", linkageName: "_ZNKSt3__117basic_string_viewIwNS_11char_traitsIwEEE4findES3_m", scope: !529, file: !530, line: 384, type: !630, isLocal: false, isDefinition: false, scopeLine: 384, flags: DIFlagPublic | DIFlagPrototyped, isOptimized: false)
!630 = !DISubroutineType(types: !631)
!631 = !{!607, !564, !529, !534}
!632 = !DISubprogram(name: "find", linkageName: "_ZNKSt3__117basic_string_viewIwNS_11char_traitsIwEEE4findEwm", scope: !529, file: !530, line: 392, type: !633, isLocal: false, isDefinition: false, scopeLine: 392, flags: DIFlagPublic | DIFlagPrototyped, isOptimized: false)
!633 = !DISubroutineType(types: !634)
!634 = !{!607, !564, !231, !534}
!635 = !DISubprogram(name: "find", linkageName: "_ZNKSt3__117basic_string_viewIwNS_11char_traitsIwEEE4findEPKwmm", scope: !529, file: !530, line: 399, type: !636, isLocal: false, isDefinition: false, scopeLine: 399, flags: DIFlagPublic | DIFlagPrototyped, isOptimized: false)
!636 = !DISubroutineType(types: !637)
!637 = !{!607, !564, !252, !534, !534}
!638 = !DISubprogram(name: "find", linkageName: "_ZNKSt3__117basic_string_viewIwNS_11char_traitsIwEEE4findEPKwm", scope: !529, file: !530, line: 407, type: !639, isLocal: false, isDefinition: false, scopeLine: 407, flags: DIFlagPublic | DIFlagPrototyped, isOptimized: false)
!639 = !DISubroutineType(types: !640)
!640 = !{!607, !564, !252, !534}
!641 = !DISubprogram(name: "rfind", linkageName: "_ZNKSt3__117basic_string_viewIwNS_11char_traitsIwEEE5rfindES3_m", scope: !529, file: !530, line: 416, type: !630, isLocal: false, isDefinition: false, scopeLine: 416, flags: DIFlagPublic | DIFlagPrototyped, isOptimized: false)
!642 = !DISubprogram(name: "rfind", linkageName: "_ZNKSt3__117basic_string_viewIwNS_11char_traitsIwEEE5rfindEwm", scope: !529, file: !530, line: 424, type: !633, isLocal: false, isDefinition: false, scopeLine: 424, flags: DIFlagPublic | DIFlagPrototyped, isOptimized: false)
!643 = !DISubprogram(name: "rfind", linkageName: "_ZNKSt3__117basic_string_viewIwNS_11char_traitsIwEEE5rfindEPKwmm", scope: !529, file: !530, line: 431, type: !636, isLocal: false, isDefinition: false, scopeLine: 431, flags: DIFlagPublic | DIFlagPrototyped, isOptimized: false)
!644 = !DISubprogram(name: "rfind", linkageName: "_ZNKSt3__117basic_string_viewIwNS_11char_traitsIwEEE5rfindEPKwm", scope: !529, file: !530, line: 439, type: !639, isLocal: false, isDefinition: false, scopeLine: 439, flags: DIFlagPublic | DIFlagPrototyped, isOptimized: false)
!645 = !DISubprogram(name: "find_first_of", linkageName: "_ZNKSt3__117basic_string_viewIwNS_11char_traitsIwEEE13find_first_ofES3_m", scope: !529, file: !530, line: 448, type: !630, isLocal: false, isDefinition: false, scopeLine: 448, flags: DIFlagPublic | DIFlagPrototyped, isOptimized: false)
!646 = !DISubprogram(name: "find_first_of", linkageName: "_ZNKSt3__117basic_string_viewIwNS_11char_traitsIwEEE13find_first_ofEwm", scope: !529, file: !530, line: 456, type: !633, isLocal: false, isDefinition: false, scopeLine: 456, flags: DIFlagPublic | DIFlagPrototyped, isOptimized: false)
!647 = !DISubprogram(name: "find_first_of", linkageName: "_ZNKSt3__117basic_string_viewIwNS_11char_traitsIwEEE13find_first_ofEPKwmm", scope: !529, file: !530, line: 460, type: !636, isLocal: false, isDefinition: false, scopeLine: 460, flags: DIFlagPublic | DIFlagPrototyped, isOptimized: false)
!648 = !DISubprogram(name: "find_first_of", linkageName: "_ZNKSt3__117basic_string_viewIwNS_11char_traitsIwEEE13find_first_ofEPKwm", scope: !529, file: !530, line: 468, type: !639, isLocal: false, isDefinition: false, scopeLine: 468, flags: DIFlagPublic | DIFlagPrototyped, isOptimized: false)
!649 = !DISubprogram(name: "find_last_of", linkageName: "_ZNKSt3__117basic_string_viewIwNS_11char_traitsIwEEE12find_last_ofES3_m", scope: !529, file: !530, line: 477, type: !630, isLocal: false, isDefinition: false, scopeLine: 477, flags: DIFlagPublic | DIFlagPrototyped, isOptimized: false)
!650 = !DISubprogram(name: "find_last_of", linkageName: "_ZNKSt3__117basic_string_viewIwNS_11char_traitsIwEEE12find_last_ofEwm", scope: !529, file: !530, line: 485, type: !633, isLocal: false, isDefinition: false, scopeLine: 485, flags: DIFlagPublic | DIFlagPrototyped, isOptimized: false)
!651 = !DISubprogram(name: "find_last_of", linkageName: "_ZNKSt3__117basic_string_viewIwNS_11char_traitsIwEEE12find_last_ofEPKwmm", scope: !529, file: !530, line: 489, type: !636, isLocal: false, isDefinition: false, scopeLine: 489, flags: DIFlagPublic | DIFlagPrototyped, isOptimized: false)
!652 = !DISubprogram(name: "find_last_of", linkageName: "_ZNKSt3__117basic_string_viewIwNS_11char_traitsIwEEE12find_last_ofEPKwm", scope: !529, file: !530, line: 497, type: !639, isLocal: false, isDefinition: false, scopeLine: 497, flags: DIFlagPublic | DIFlagPrototyped, isOptimized: false)
!653 = !DISubprogram(name: "find_first_not_of", linkageName: "_ZNKSt3__117basic_string_viewIwNS_11char_traitsIwEEE17find_first_not_ofES3_m", scope: !529, file: !530, line: 506, type: !630, isLocal: false, isDefinition: false, scopeLine: 506, flags: DIFlagPublic | DIFlagPrototyped, isOptimized: false)
!654 = !DISubprogram(name: "find_first_not_of", linkageName: "_ZNKSt3__117basic_string_viewIwNS_11char_traitsIwEEE17find_first_not_ofEwm", scope: !529, file: !530, line: 514, type: !633, isLocal: false, isDefinition: false, scopeLine: 514, flags: DIFlagPublic | DIFlagPrototyped, isOptimized: false)
!655 = !DISubprogram(name: "find_first_not_of", linkageName: "_ZNKSt3__117basic_string_viewIwNS_11char_traitsIwEEE17find_first_not_ofEPKwmm", scope: !529, file: !530, line: 521, type: !636, isLocal: false, isDefinition: false, scopeLine: 521, flags: DIFlagPublic | DIFlagPrototyped, isOptimized: false)
!656 = !DISubprogram(name: "find_first_not_of", linkageName: "_ZNKSt3__117basic_string_viewIwNS_11char_traitsIwEEE17find_first_not_ofEPKwm", scope: !529, file: !530, line: 529, type: !639, isLocal: false, isDefinition: false, scopeLine: 529, flags: DIFlagPublic | DIFlagPrototyped, isOptimized: false)
!657 = !DISubprogram(name: "find_last_not_of", linkageName: "_ZNKSt3__117basic_string_viewIwNS_11char_traitsIwEEE16find_last_not_ofES3_m", scope: !529, file: !530, line: 538, type: !630, isLocal: false, isDefinition: false, scopeLine: 538, flags: DIFlagPublic | DIFlagPrototyped, isOptimized: false)
!658 = !DISubprogram(name: "find_last_not_of", linkageName: "_ZNKSt3__117basic_string_viewIwNS_11char_traitsIwEEE16find_last_not_ofEwm", scope: !529, file: !530, line: 546, type: !633, isLocal: false, isDefinition: false, scopeLine: 546, flags: DIFlagPublic | DIFlagPrototyped, isOptimized: false)
!659 = !DISubprogram(name: "find_last_not_of", linkageName: "_ZNKSt3__117basic_string_viewIwNS_11char_traitsIwEEE16find_last_not_ofEPKwmm", scope: !529, file: !530, line: 553, type: !636, isLocal: false, isDefinition: false, scopeLine: 553, flags: DIFlagPublic | DIFlagPrototyped, isOptimized: false)
!660 = !DISubprogram(name: "find_last_not_of", linkageName: "_ZNKSt3__117basic_string_viewIwNS_11char_traitsIwEEE16find_last_not_ofEPKwm", scope: !529, file: !530, line: 561, type: !639, isLocal: false, isDefinition: false, scopeLine: 561, flags: DIFlagPublic | DIFlagPrototyped, isOptimized: false)
!661 = !{!662, !663}
!662 = !DITemplateTypeParameter(name: "_CharT", type: !231)
!663 = !DITemplateTypeParameter(name: "_Traits", type: !664)
!664 = distinct !DICompositeType(tag: DW_TAG_structure_type, name: "char_traits<wchar_t>", scope: !23, file: !665, line: 289, size: 8, elements: !666, templateParams: !716, identifier: "_ZTSNSt3__111char_traitsIwEE")
!665 = !DIFile(filename: "/Applications/Xcode.app/Contents/Developer/Toolchains/XcodeDefault.xctoolchain/usr/include/c++/v1/__string", directory: "/Users/ejiang/Projects/lls/ac/asserts")
!666 = !{!667, !674, !677, !678, !682, !685, !688, !692, !693, !696, !704, !707, !710, !713}
!667 = !DISubprogram(name: "assign", linkageName: "_ZNSt3__111char_traitsIwE6assignERwRKw", scope: !664, file: !665, line: 298, type: !668, isLocal: false, isDefinition: false, scopeLine: 298, flags: DIFlagPrototyped, isOptimized: false)
!668 = !DISubroutineType(types: !669)
!669 = !{null, !670, !672}
!670 = !DIDerivedType(tag: DW_TAG_reference_type, baseType: !671, size: 64)
!671 = !DIDerivedType(tag: DW_TAG_typedef, name: "char_type", scope: !664, file: !665, line: 291, baseType: !231)
!672 = !DIDerivedType(tag: DW_TAG_reference_type, baseType: !673, size: 64)
!673 = !DIDerivedType(tag: DW_TAG_const_type, baseType: !671)
!674 = !DISubprogram(name: "eq", linkageName: "_ZNSt3__111char_traitsIwE2eqEww", scope: !664, file: !665, line: 299, type: !675, isLocal: false, isDefinition: false, scopeLine: 299, flags: DIFlagPrototyped, isOptimized: false)
!675 = !DISubroutineType(types: !676)
!676 = !{!60, !671, !671}
!677 = !DISubprogram(name: "lt", linkageName: "_ZNSt3__111char_traitsIwE2ltEww", scope: !664, file: !665, line: 301, type: !675, isLocal: false, isDefinition: false, scopeLine: 301, flags: DIFlagPrototyped, isOptimized: false)
!678 = !DISubprogram(name: "compare", linkageName: "_ZNSt3__111char_traitsIwE7compareEPKwS3_m", scope: !664, file: !665, line: 305, type: !679, isLocal: false, isDefinition: false, scopeLine: 305, flags: DIFlagPrototyped, isOptimized: false)
!679 = !DISubroutineType(types: !680)
!680 = !{!14, !681, !681, !124}
!681 = !DIDerivedType(tag: DW_TAG_pointer_type, baseType: !673, size: 64)
!682 = !DISubprogram(name: "length", linkageName: "_ZNSt3__111char_traitsIwE6lengthEPKw", scope: !664, file: !665, line: 307, type: !683, isLocal: false, isDefinition: false, scopeLine: 307, flags: DIFlagPrototyped, isOptimized: false)
!683 = !DISubroutineType(types: !684)
!684 = !{!124, !681}
!685 = !DISubprogram(name: "find", linkageName: "_ZNSt3__111char_traitsIwE4findEPKwmRS2_", scope: !664, file: !665, line: 309, type: !686, isLocal: false, isDefinition: false, scopeLine: 309, flags: DIFlagPrototyped, isOptimized: false)
!686 = !DISubroutineType(types: !687)
!687 = !{!681, !681, !124, !672}
!688 = !DISubprogram(name: "move", linkageName: "_ZNSt3__111char_traitsIwE4moveEPwPKwm", scope: !664, file: !665, line: 310, type: !689, isLocal: false, isDefinition: false, scopeLine: 310, flags: DIFlagPrototyped, isOptimized: false)
!689 = !DISubroutineType(types: !690)
!690 = !{!691, !691, !681, !124}
!691 = !DIDerivedType(tag: DW_TAG_pointer_type, baseType: !671, size: 64)
!692 = !DISubprogram(name: "copy", linkageName: "_ZNSt3__111char_traitsIwE4copyEPwPKwm", scope: !664, file: !665, line: 312, type: !689, isLocal: false, isDefinition: false, scopeLine: 312, flags: DIFlagPrototyped, isOptimized: false)
!693 = !DISubprogram(name: "assign", linkageName: "_ZNSt3__111char_traitsIwE6assignEPwmw", scope: !664, file: !665, line: 317, type: !694, isLocal: false, isDefinition: false, scopeLine: 317, flags: DIFlagPrototyped, isOptimized: false)
!694 = !DISubroutineType(types: !695)
!695 = !{!691, !691, !124, !671}
!696 = !DISubprogram(name: "not_eof", linkageName: "_ZNSt3__111char_traitsIwE7not_eofEi", scope: !664, file: !665, line: 320, type: !697, isLocal: false, isDefinition: false, scopeLine: 320, flags: DIFlagPrototyped, isOptimized: false)
!697 = !DISubroutineType(types: !698)
!698 = !{!699, !699}
!699 = !DIDerivedType(tag: DW_TAG_typedef, name: "int_type", scope: !664, file: !665, line: 292, baseType: !700)
!700 = !DIDerivedType(tag: DW_TAG_typedef, name: "wint_t", file: !701, line: 32, baseType: !702)
!701 = !DIFile(filename: "/usr/include/sys/_types/_wint_t.h", directory: "/Users/ejiang/Projects/lls/ac/asserts")
!702 = !DIDerivedType(tag: DW_TAG_typedef, name: "__darwin_wint_t", file: !703, line: 112, baseType: !14)
!703 = !DIFile(filename: "/usr/include/i386/_types.h", directory: "/Users/ejiang/Projects/lls/ac/asserts")
!704 = !DISubprogram(name: "to_char_type", linkageName: "_ZNSt3__111char_traitsIwE12to_char_typeEi", scope: !664, file: !665, line: 322, type: !705, isLocal: false, isDefinition: false, scopeLine: 322, flags: DIFlagPrototyped, isOptimized: false)
!705 = !DISubroutineType(types: !706)
!706 = !{!671, !699}
!707 = !DISubprogram(name: "to_int_type", linkageName: "_ZNSt3__111char_traitsIwE11to_int_typeEw", scope: !664, file: !665, line: 324, type: !708, isLocal: false, isDefinition: false, scopeLine: 324, flags: DIFlagPrototyped, isOptimized: false)
!708 = !DISubroutineType(types: !709)
!709 = !{!699, !671}
!710 = !DISubprogram(name: "eq_int_type", linkageName: "_ZNSt3__111char_traitsIwE11eq_int_typeEii", scope: !664, file: !665, line: 326, type: !711, isLocal: false, isDefinition: false, scopeLine: 326, flags: DIFlagPrototyped, isOptimized: false)
!711 = !DISubroutineType(types: !712)
!712 = !{!60, !699, !699}
!713 = !DISubprogram(name: "eof", linkageName: "_ZNSt3__111char_traitsIwE3eofEv", scope: !664, file: !665, line: 328, type: !714, isLocal: false, isDefinition: false, scopeLine: 328, flags: DIFlagPrototyped, isOptimized: false)
!714 = !DISubroutineType(types: !715)
!715 = !{!699}
!716 = !{!662}
!717 = !DISubprogram(name: "basic_string", scope: !204, file: !205, line: 799, type: !718, isLocal: false, isDefinition: false, scopeLine: 799, flags: DIFlagPublic | DIFlagPrototyped, isOptimized: false)
!718 = !DISubroutineType(types: !719)
!719 = !{null, !479, !528, !446}
!720 = !DISubprogram(name: "basic_string", scope: !204, file: !205, line: 808, type: !721, isLocal: false, isDefinition: false, scopeLine: 808, flags: DIFlagPublic | DIFlagPrototyped, isOptimized: false)
!721 = !DISubroutineType(types: !722)
!722 = !{null, !479, !723}
!723 = distinct !DICompositeType(tag: DW_TAG_class_type, name: "initializer_list<wchar_t>", scope: !24, file: !724, line: 59, size: 128, elements: !725, templateParams: !744, identifier: "_ZTSSt16initializer_listIwE")
!724 = !DIFile(filename: "/Applications/Xcode.app/Contents/Developer/Toolchains/XcodeDefault.xctoolchain/usr/include/c++/v1/initializer_list", directory: "/Users/ejiang/Projects/lls/ac/asserts")
!725 = !{!726, !727, !728, !732, !735, !740, !743}
!726 = !DIDerivedType(tag: DW_TAG_member, name: "__begin_", scope: !723, file: !724, line: 61, baseType: !252, size: 64)
!727 = !DIDerivedType(tag: DW_TAG_member, name: "__size_", scope: !723, file: !724, line: 62, baseType: !124, size: 64, offset: 64)
!728 = !DISubprogram(name: "initializer_list", scope: !723, file: !724, line: 66, type: !729, isLocal: false, isDefinition: false, scopeLine: 66, flags: DIFlagPrototyped, isOptimized: false)
!729 = !DISubroutineType(types: !730)
!730 = !{null, !731, !252, !124}
!731 = !DIDerivedType(tag: DW_TAG_pointer_type, baseType: !723, size: 64, flags: DIFlagArtificial | DIFlagObjectPointer)
!732 = !DISubprogram(name: "initializer_list", scope: !723, file: !724, line: 81, type: !733, isLocal: false, isDefinition: false, scopeLine: 81, flags: DIFlagPublic | DIFlagPrototyped, isOptimized: false)
!733 = !DISubroutineType(types: !734)
!734 = !{null, !731}
!735 = !DISubprogram(name: "size", linkageName: "_ZNKSt16initializer_listIwE4sizeEv", scope: !723, file: !724, line: 85, type: !736, isLocal: false, isDefinition: false, scopeLine: 85, flags: DIFlagPublic | DIFlagPrototyped, isOptimized: false)
!736 = !DISubroutineType(types: !737)
!737 = !{!124, !738}
!738 = !DIDerivedType(tag: DW_TAG_pointer_type, baseType: !739, size: 64, flags: DIFlagArtificial | DIFlagObjectPointer)
!739 = !DIDerivedType(tag: DW_TAG_const_type, baseType: !723)
!740 = !DISubprogram(name: "begin", linkageName: "_ZNKSt16initializer_listIwE5beginEv", scope: !723, file: !724, line: 89, type: !741, isLocal: false, isDefinition: false, scopeLine: 89, flags: DIFlagPublic | DIFlagPrototyped, isOptimized: false)
!741 = !DISubroutineType(types: !742)
!742 = !{!252, !738}
!743 = !DISubprogram(name: "end", linkageName: "_ZNKSt16initializer_listIwE3endEv", scope: !723, file: !724, line: 93, type: !741, isLocal: false, isDefinition: false, scopeLine: 93, flags: DIFlagPublic | DIFlagPrototyped, isOptimized: false)
!744 = !{!745}
!745 = !DITemplateTypeParameter(name: "_Ep", type: !231)
!746 = !DISubprogram(name: "basic_string", scope: !204, file: !205, line: 810, type: !747, isLocal: false, isDefinition: false, scopeLine: 810, flags: DIFlagPublic | DIFlagPrototyped, isOptimized: false)
!747 = !DISubroutineType(types: !748)
!748 = !{null, !479, !723, !446}
!749 = !DISubprogram(name: "~basic_string", scope: !204, file: !205, line: 813, type: !477, isLocal: false, isDefinition: false, scopeLine: 813, flags: DIFlagPublic | DIFlagPrototyped, isOptimized: false)
!750 = !DISubprogram(name: "operator basic_string_view", linkageName: "_ZNKSt3__112basic_stringIwNS_11char_traitsIwEENS_9allocatorIwEEEcvNS_17basic_string_viewIwS2_EEEv", scope: !204, file: !205, line: 816, type: !751, isLocal: false, isDefinition: false, scopeLine: 816, flags: DIFlagPublic | DIFlagPrototyped, isOptimized: false)
!751 = !DISubroutineType(types: !752)
!752 = !{!528, !753}
!753 = !DIDerivedType(tag: DW_TAG_pointer_type, baseType: !490, size: 64, flags: DIFlagArtificial | DIFlagObjectPointer)
!754 = !DISubprogram(name: "operator=", linkageName: "_ZNSt3__112basic_stringIwNS_11char_traitsIwEENS_9allocatorIwEEEaSERKS5_", scope: !204, file: !205, line: 818, type: !755, isLocal: false, isDefinition: false, scopeLine: 818, flags: DIFlagPublic | DIFlagPrototyped, isOptimized: false)
!755 = !DISubroutineType(types: !756)
!756 = !{!757, !479, !489}
!757 = !DIDerivedType(tag: DW_TAG_reference_type, baseType: !204, size: 64)
!758 = !DISubprogram(name: "operator=", linkageName: "_ZNSt3__112basic_stringIwNS_11char_traitsIwEENS_9allocatorIwEEEaSEOS5_", scope: !204, file: !205, line: 827, type: !759, isLocal: false, isDefinition: false, scopeLine: 827, flags: DIFlagPublic | DIFlagPrototyped, isOptimized: false)
!759 = !DISubroutineType(types: !760)
!760 = !{!757, !479, !497}
!761 = !DISubprogram(name: "operator=", linkageName: "_ZNSt3__112basic_stringIwNS_11char_traitsIwEENS_9allocatorIwEEEaSESt16initializer_listIwE", scope: !204, file: !205, line: 830, type: !762, isLocal: false, isDefinition: false, scopeLine: 830, flags: DIFlagPublic | DIFlagPrototyped, isOptimized: false)
!762 = !DISubroutineType(types: !763)
!763 = !{!757, !479, !723}
!764 = !DISubprogram(name: "operator=", linkageName: "_ZNSt3__112basic_stringIwNS_11char_traitsIwEENS_9allocatorIwEEEaSEPKw", scope: !204, file: !205, line: 832, type: !765, isLocal: false, isDefinition: false, scopeLine: 832, flags: DIFlagPublic | DIFlagPrototyped, isOptimized: false)
!765 = !DISubroutineType(types: !766)
!766 = !{!757, !479, !767}
!767 = !DIDerivedType(tag: DW_TAG_pointer_type, baseType: !768, size: 64)
!768 = !DIDerivedType(tag: DW_TAG_const_type, baseType: !396)
!769 = !DISubprogram(name: "operator=", linkageName: "_ZNSt3__112basic_stringIwNS_11char_traitsIwEENS_9allocatorIwEEEaSEw", scope: !204, file: !205, line: 833, type: !770, isLocal: false, isDefinition: false, scopeLine: 833, flags: DIFlagPublic | DIFlagPrototyped, isOptimized: false)
!770 = !DISubroutineType(types: !771)
!771 = !{!757, !479, !396}
!772 = !DISubprogram(name: "begin", linkageName: "_ZNSt3__112basic_stringIwNS_11char_traitsIwEENS_9allocatorIwEEE5beginEv", scope: !204, file: !205, line: 850, type: !773, isLocal: false, isDefinition: false, scopeLine: 850, flags: DIFlagPublic | DIFlagPrototyped, isOptimized: false)
!773 = !DISubroutineType(types: !774)
!774 = !{!775, !479}
!775 = !DIDerivedType(tag: DW_TAG_typedef, name: "iterator", scope: !204, file: !205, line: 656, baseType: !776)
!776 = !DICompositeType(tag: DW_TAG_class_type, name: "__wrap_iter<wchar_t *>", scope: !23, file: !573, line: 1279, flags: DIFlagFwdDecl, identifier: "_ZTSNSt3__111__wrap_iterIPwEE")
!777 = !DISubprogram(name: "begin", linkageName: "_ZNKSt3__112basic_stringIwNS_11char_traitsIwEENS_9allocatorIwEEE5beginEv", scope: !204, file: !205, line: 853, type: !778, isLocal: false, isDefinition: false, scopeLine: 853, flags: DIFlagPublic | DIFlagPrototyped, isOptimized: false)
!778 = !DISubroutineType(types: !779)
!779 = !{!780, !753}
!780 = !DIDerivedType(tag: DW_TAG_typedef, name: "const_iterator", scope: !204, file: !205, line: 657, baseType: !781)
!781 = !DICompositeType(tag: DW_TAG_class_type, name: "__wrap_iter<const wchar_t *>", scope: !23, file: !573, line: 1279, flags: DIFlagFwdDecl, identifier: "_ZTSNSt3__111__wrap_iterIPKwEE")
!782 = !DISubprogram(name: "end", linkageName: "_ZNSt3__112basic_stringIwNS_11char_traitsIwEENS_9allocatorIwEEE3endEv", scope: !204, file: !205, line: 856, type: !773, isLocal: false, isDefinition: false, scopeLine: 856, flags: DIFlagPublic | DIFlagPrototyped, isOptimized: false)
!783 = !DISubprogram(name: "end", linkageName: "_ZNKSt3__112basic_stringIwNS_11char_traitsIwEENS_9allocatorIwEEE3endEv", scope: !204, file: !205, line: 859, type: !778, isLocal: false, isDefinition: false, scopeLine: 859, flags: DIFlagPublic | DIFlagPrototyped, isOptimized: false)
!784 = !DISubprogram(name: "rbegin", linkageName: "_ZNSt3__112basic_stringIwNS_11char_traitsIwEENS_9allocatorIwEEE6rbeginEv", scope: !204, file: !205, line: 863, type: !785, isLocal: false, isDefinition: false, scopeLine: 863, flags: DIFlagPublic | DIFlagPrototyped, isOptimized: false)
!785 = !DISubroutineType(types: !786)
!786 = !{!787, !479}
!787 = !DIDerivedType(tag: DW_TAG_typedef, name: "reverse_iterator", scope: !204, file: !205, line: 659, baseType: !788)
!788 = !DICompositeType(tag: DW_TAG_class_type, name: "reverse_iterator<std::__1::__wrap_iter<wchar_t *> >", scope: !23, file: !573, line: 636, flags: DIFlagFwdDecl, identifier: "_ZTSNSt3__116reverse_iteratorINS_11__wrap_iterIPwEEEE")
!789 = !DISubprogram(name: "rbegin", linkageName: "_ZNKSt3__112basic_stringIwNS_11char_traitsIwEENS_9allocatorIwEEE6rbeginEv", scope: !204, file: !205, line: 866, type: !790, isLocal: false, isDefinition: false, scopeLine: 866, flags: DIFlagPublic | DIFlagPrototyped, isOptimized: false)
!790 = !DISubroutineType(types: !791)
!791 = !{!792, !753}
!792 = !DIDerivedType(tag: DW_TAG_typedef, name: "const_reverse_iterator", scope: !204, file: !205, line: 660, baseType: !793)
!793 = !DICompositeType(tag: DW_TAG_class_type, name: "reverse_iterator<std::__1::__wrap_iter<const wchar_t *> >", scope: !23, file: !573, line: 636, flags: DIFlagFwdDecl, identifier: "_ZTSNSt3__116reverse_iteratorINS_11__wrap_iterIPKwEEEE")
!794 = !DISubprogram(name: "rend", linkageName: "_ZNSt3__112basic_stringIwNS_11char_traitsIwEENS_9allocatorIwEEE4rendEv", scope: !204, file: !205, line: 869, type: !785, isLocal: false, isDefinition: false, scopeLine: 869, flags: DIFlagPublic | DIFlagPrototyped, isOptimized: false)
!795 = !DISubprogram(name: "rend", linkageName: "_ZNKSt3__112basic_stringIwNS_11char_traitsIwEENS_9allocatorIwEEE4rendEv", scope: !204, file: !205, line: 872, type: !790, isLocal: false, isDefinition: false, scopeLine: 872, flags: DIFlagPublic | DIFlagPrototyped, isOptimized: false)
!796 = !DISubprogram(name: "cbegin", linkageName: "_ZNKSt3__112basic_stringIwNS_11char_traitsIwEENS_9allocatorIwEEE6cbeginEv", scope: !204, file: !205, line: 876, type: !778, isLocal: false, isDefinition: false, scopeLine: 876, flags: DIFlagPublic | DIFlagPrototyped, isOptimized: false)
!797 = !DISubprogram(name: "cend", linkageName: "_ZNKSt3__112basic_stringIwNS_11char_traitsIwEENS_9allocatorIwEEE4cendEv", scope: !204, file: !205, line: 879, type: !778, isLocal: false, isDefinition: false, scopeLine: 879, flags: DIFlagPublic | DIFlagPrototyped, isOptimized: false)
!798 = !DISubprogram(name: "crbegin", linkageName: "_ZNKSt3__112basic_stringIwNS_11char_traitsIwEENS_9allocatorIwEEE7crbeginEv", scope: !204, file: !205, line: 882, type: !790, isLocal: false, isDefinition: false, scopeLine: 882, flags: DIFlagPublic | DIFlagPrototyped, isOptimized: false)
!799 = !DISubprogram(name: "crend", linkageName: "_ZNKSt3__112basic_stringIwNS_11char_traitsIwEENS_9allocatorIwEEE5crendEv", scope: !204, file: !205, line: 885, type: !790, isLocal: false, isDefinition: false, scopeLine: 885, flags: DIFlagPublic | DIFlagPrototyped, isOptimized: false)
!800 = !DISubprogram(name: "size", linkageName: "_ZNKSt3__112basic_stringIwNS_11char_traitsIwEENS_9allocatorIwEEE4sizeEv", scope: !204, file: !205, line: 888, type: !801, isLocal: false, isDefinition: false, scopeLine: 888, flags: DIFlagPublic | DIFlagPrototyped, isOptimized: false)
!801 = !DISubroutineType(types: !802)
!802 = !{!219, !753}
!803 = !DISubprogram(name: "length", linkageName: "_ZNKSt3__112basic_stringIwNS_11char_traitsIwEENS_9allocatorIwEEE6lengthEv", scope: !204, file: !205, line: 890, type: !801, isLocal: false, isDefinition: false, scopeLine: 890, flags: DIFlagPublic | DIFlagPrototyped, isOptimized: false)
!804 = !DISubprogram(name: "max_size", linkageName: "_ZNKSt3__112basic_stringIwNS_11char_traitsIwEENS_9allocatorIwEEE8max_sizeEv", scope: !204, file: !205, line: 891, type: !801, isLocal: false, isDefinition: false, scopeLine: 891, flags: DIFlagPublic | DIFlagPrototyped, isOptimized: false)
!805 = !DISubprogram(name: "capacity", linkageName: "_ZNKSt3__112basic_stringIwNS_11char_traitsIwEENS_9allocatorIwEEE8capacityEv", scope: !204, file: !205, line: 892, type: !801, isLocal: false, isDefinition: false, scopeLine: 892, flags: DIFlagPublic | DIFlagPrototyped, isOptimized: false)
!806 = !DISubprogram(name: "resize", linkageName: "_ZNSt3__112basic_stringIwNS_11char_traitsIwEENS_9allocatorIwEEE6resizeEmw", scope: !204, file: !205, line: 896, type: !807, isLocal: false, isDefinition: false, scopeLine: 896, flags: DIFlagPublic | DIFlagPrototyped, isOptimized: false)
!807 = !DISubroutineType(types: !808)
!808 = !{null, !479, !219, !396}
!809 = !DISubprogram(name: "resize", linkageName: "_ZNSt3__112basic_stringIwNS_11char_traitsIwEENS_9allocatorIwEEE6resizeEm", scope: !204, file: !205, line: 897, type: !810, isLocal: false, isDefinition: false, scopeLine: 897, flags: DIFlagPublic | DIFlagPrototyped, isOptimized: false)
!810 = !DISubroutineType(types: !811)
!811 = !{null, !479, !219}
!812 = !DISubprogram(name: "reserve", linkageName: "_ZNSt3__112basic_stringIwNS_11char_traitsIwEENS_9allocatorIwEEE7reserveEm", scope: !204, file: !205, line: 899, type: !810, isLocal: false, isDefinition: false, scopeLine: 899, flags: DIFlagPublic | DIFlagPrototyped, isOptimized: false)
!813 = !DISubprogram(name: "shrink_to_fit", linkageName: "_ZNSt3__112basic_stringIwNS_11char_traitsIwEENS_9allocatorIwEEE13shrink_to_fitEv", scope: !204, file: !205, line: 901, type: !477, isLocal: false, isDefinition: false, scopeLine: 901, flags: DIFlagPublic | DIFlagPrototyped, isOptimized: false)
!814 = !DISubprogram(name: "clear", linkageName: "_ZNSt3__112basic_stringIwNS_11char_traitsIwEENS_9allocatorIwEEE5clearEv", scope: !204, file: !205, line: 903, type: !477, isLocal: false, isDefinition: false, scopeLine: 903, flags: DIFlagPublic | DIFlagPrototyped, isOptimized: false)
!815 = !DISubprogram(name: "empty", linkageName: "_ZNKSt3__112basic_stringIwNS_11char_traitsIwEENS_9allocatorIwEEE5emptyEv", scope: !204, file: !205, line: 904, type: !816, isLocal: false, isDefinition: false, scopeLine: 904, flags: DIFlagPublic | DIFlagPrototyped, isOptimized: false)
!816 = !DISubroutineType(types: !817)
!817 = !{!60, !753}
!818 = !DISubprogram(name: "operator[]", linkageName: "_ZNKSt3__112basic_stringIwNS_11char_traitsIwEENS_9allocatorIwEEEixEm", scope: !204, file: !205, line: 906, type: !819, isLocal: false, isDefinition: false, scopeLine: 906, flags: DIFlagPublic | DIFlagPrototyped, isOptimized: false)
!819 = !DISubroutineType(types: !820)
!820 = !{!821, !753, !219}
!821 = !DIDerivedType(tag: DW_TAG_typedef, name: "const_reference", scope: !204, file: !205, line: 643, baseType: !822)
!822 = !DIDerivedType(tag: DW_TAG_reference_type, baseType: !768, size: 64)
!823 = !DISubprogram(name: "operator[]", linkageName: "_ZNSt3__112basic_stringIwNS_11char_traitsIwEENS_9allocatorIwEEEixEm", scope: !204, file: !205, line: 907, type: !824, isLocal: false, isDefinition: false, scopeLine: 907, flags: DIFlagPublic | DIFlagPrototyped, isOptimized: false)
!824 = !DISubroutineType(types: !825)
!825 = !{!826, !479, !219}
!826 = !DIDerivedType(tag: DW_TAG_typedef, name: "reference", scope: !204, file: !205, line: 642, baseType: !827)
!827 = !DIDerivedType(tag: DW_TAG_reference_type, baseType: !396, size: 64)
!828 = !DISubprogram(name: "at", linkageName: "_ZNKSt3__112basic_stringIwNS_11char_traitsIwEENS_9allocatorIwEEE2atEm", scope: !204, file: !205, line: 909, type: !819, isLocal: false, isDefinition: false, scopeLine: 909, flags: DIFlagPublic | DIFlagPrototyped, isOptimized: false)
!829 = !DISubprogram(name: "at", linkageName: "_ZNSt3__112basic_stringIwNS_11char_traitsIwEENS_9allocatorIwEEE2atEm", scope: !204, file: !205, line: 910, type: !824, isLocal: false, isDefinition: false, scopeLine: 910, flags: DIFlagPublic | DIFlagPrototyped, isOptimized: false)
!830 = !DISubprogram(name: "operator+=", linkageName: "_ZNSt3__112basic_stringIwNS_11char_traitsIwEENS_9allocatorIwEEEpLERKS5_", scope: !204, file: !205, line: 912, type: !755, isLocal: false, isDefinition: false, scopeLine: 912, flags: DIFlagPublic | DIFlagPrototyped, isOptimized: false)
!831 = !DISubprogram(name: "operator+=", linkageName: "_ZNSt3__112basic_stringIwNS_11char_traitsIwEENS_9allocatorIwEEEpLENS_17basic_string_viewIwS2_EE", scope: !204, file: !205, line: 913, type: !832, isLocal: false, isDefinition: false, scopeLine: 913, flags: DIFlagPublic | DIFlagPrototyped, isOptimized: false)
!832 = !DISubroutineType(types: !833)
!833 = !{!757, !479, !528}
!834 = !DISubprogram(name: "operator+=", linkageName: "_ZNSt3__112basic_stringIwNS_11char_traitsIwEENS_9allocatorIwEEEpLEPKw", scope: !204, file: !205, line: 914, type: !765, isLocal: false, isDefinition: false, scopeLine: 914, flags: DIFlagPublic | DIFlagPrototyped, isOptimized: false)
!835 = !DISubprogram(name: "operator+=", linkageName: "_ZNSt3__112basic_stringIwNS_11char_traitsIwEENS_9allocatorIwEEEpLEw", scope: !204, file: !205, line: 915, type: !770, isLocal: false, isDefinition: false, scopeLine: 915, flags: DIFlagPublic | DIFlagPrototyped, isOptimized: false)
!836 = !DISubprogram(name: "operator+=", linkageName: "_ZNSt3__112basic_stringIwNS_11char_traitsIwEENS_9allocatorIwEEEpLESt16initializer_listIwE", scope: !204, file: !205, line: 917, type: !762, isLocal: false, isDefinition: false, scopeLine: 917, flags: DIFlagPublic | DIFlagPrototyped, isOptimized: false)
!837 = !DISubprogram(name: "append", linkageName: "_ZNSt3__112basic_stringIwNS_11char_traitsIwEENS_9allocatorIwEEE6appendERKS5_", scope: !204, file: !205, line: 921, type: !755, isLocal: false, isDefinition: false, scopeLine: 921, flags: DIFlagPublic | DIFlagPrototyped, isOptimized: false)
!838 = !DISubprogram(name: "append", linkageName: "_ZNSt3__112basic_stringIwNS_11char_traitsIwEENS_9allocatorIwEEE6appendENS_17basic_string_viewIwS2_EE", scope: !204, file: !205, line: 923, type: !832, isLocal: false, isDefinition: false, scopeLine: 923, flags: DIFlagPublic | DIFlagPrototyped, isOptimized: false)
!839 = !DISubprogram(name: "append", linkageName: "_ZNSt3__112basic_stringIwNS_11char_traitsIwEENS_9allocatorIwEEE6appendERKS5_mm", scope: !204, file: !205, line: 924, type: !840, isLocal: false, isDefinition: false, scopeLine: 924, flags: DIFlagPublic | DIFlagPrototyped, isOptimized: false)
!840 = !DISubroutineType(types: !841)
!841 = !{!757, !479, !489, !219, !219}
!842 = !DISubprogram(name: "append", linkageName: "_ZNSt3__112basic_stringIwNS_11char_traitsIwEENS_9allocatorIwEEE6appendEPKwm", scope: !204, file: !205, line: 933, type: !843, isLocal: false, isDefinition: false, scopeLine: 933, flags: DIFlagPublic | DIFlagPrototyped, isOptimized: false)
!843 = !DISubroutineType(types: !844)
!844 = !{!757, !479, !767, !219}
!845 = !DISubprogram(name: "append", linkageName: "_ZNSt3__112basic_stringIwNS_11char_traitsIwEENS_9allocatorIwEEE6appendEPKw", scope: !204, file: !205, line: 934, type: !765, isLocal: false, isDefinition: false, scopeLine: 934, flags: DIFlagPublic | DIFlagPrototyped, isOptimized: false)
!846 = !DISubprogram(name: "append", linkageName: "_ZNSt3__112basic_stringIwNS_11char_traitsIwEENS_9allocatorIwEEE6appendEmw", scope: !204, file: !205, line: 935, type: !847, isLocal: false, isDefinition: false, scopeLine: 935, flags: DIFlagPublic | DIFlagPrototyped, isOptimized: false)
!847 = !DISubroutineType(types: !848)
!848 = !{!757, !479, !219, !396}
!849 = !DISubprogram(name: "append", linkageName: "_ZNSt3__112basic_stringIwNS_11char_traitsIwEENS_9allocatorIwEEE6appendESt16initializer_listIwE", scope: !204, file: !205, line: 968, type: !762, isLocal: false, isDefinition: false, scopeLine: 968, flags: DIFlagPublic | DIFlagPrototyped, isOptimized: false)
!850 = !DISubprogram(name: "push_back", linkageName: "_ZNSt3__112basic_stringIwNS_11char_traitsIwEENS_9allocatorIwEEE9push_backEw", scope: !204, file: !205, line: 971, type: !851, isLocal: false, isDefinition: false, scopeLine: 971, flags: DIFlagPublic | DIFlagPrototyped, isOptimized: false)
!851 = !DISubroutineType(types: !852)
!852 = !{null, !479, !396}
!853 = !DISubprogram(name: "pop_back", linkageName: "_ZNSt3__112basic_stringIwNS_11char_traitsIwEENS_9allocatorIwEEE8pop_backEv", scope: !204, file: !205, line: 973, type: !477, isLocal: false, isDefinition: false, scopeLine: 973, flags: DIFlagPublic | DIFlagPrototyped, isOptimized: false)
!854 = !DISubprogram(name: "front", linkageName: "_ZNSt3__112basic_stringIwNS_11char_traitsIwEENS_9allocatorIwEEE5frontEv", scope: !204, file: !205, line: 974, type: !855, isLocal: false, isDefinition: false, scopeLine: 974, flags: DIFlagPublic | DIFlagPrototyped, isOptimized: false)
!855 = !DISubroutineType(types: !856)
!856 = !{!826, !479}
!857 = !DISubprogram(name: "front", linkageName: "_ZNKSt3__112basic_stringIwNS_11char_traitsIwEENS_9allocatorIwEEE5frontEv", scope: !204, file: !205, line: 975, type: !858, isLocal: false, isDefinition: false, scopeLine: 975, flags: DIFlagPublic | DIFlagPrototyped, isOptimized: false)
!858 = !DISubroutineType(types: !859)
!859 = !{!821, !753}
!860 = !DISubprogram(name: "back", linkageName: "_ZNSt3__112basic_stringIwNS_11char_traitsIwEENS_9allocatorIwEEE4backEv", scope: !204, file: !205, line: 976, type: !855, isLocal: false, isDefinition: false, scopeLine: 976, flags: DIFlagPublic | DIFlagPrototyped, isOptimized: false)
!861 = !DISubprogram(name: "back", linkageName: "_ZNKSt3__112basic_stringIwNS_11char_traitsIwEENS_9allocatorIwEEE4backEv", scope: !204, file: !205, line: 977, type: !858, isLocal: false, isDefinition: false, scopeLine: 977, flags: DIFlagPublic | DIFlagPrototyped, isOptimized: false)
!862 = !DISubprogram(name: "assign", linkageName: "_ZNSt3__112basic_stringIwNS_11char_traitsIwEENS_9allocatorIwEEE6assignENS_17basic_string_viewIwS2_EE", scope: !204, file: !205, line: 980, type: !832, isLocal: false, isDefinition: false, scopeLine: 980, flags: DIFlagPublic | DIFlagPrototyped, isOptimized: false)
!863 = !DISubprogram(name: "assign", linkageName: "_ZNSt3__112basic_stringIwNS_11char_traitsIwEENS_9allocatorIwEEE6assignERKS5_", scope: !204, file: !205, line: 982, type: !755, isLocal: false, isDefinition: false, scopeLine: 982, flags: DIFlagPublic | DIFlagPrototyped, isOptimized: false)
!864 = !DISubprogram(name: "assign", linkageName: "_ZNSt3__112basic_stringIwNS_11char_traitsIwEENS_9allocatorIwEEE6assignEOS5_", scope: !204, file: !205, line: 985, type: !759, isLocal: false, isDefinition: false, scopeLine: 985, flags: DIFlagPublic | DIFlagPrototyped, isOptimized: false)
!865 = !DISubprogram(name: "assign", linkageName: "_ZNSt3__112basic_stringIwNS_11char_traitsIwEENS_9allocatorIwEEE6assignERKS5_mm", scope: !204, file: !205, line: 989, type: !840, isLocal: false, isDefinition: false, scopeLine: 989, flags: DIFlagPublic | DIFlagPrototyped, isOptimized: false)
!866 = !DISubprogram(name: "assign", linkageName: "_ZNSt3__112basic_stringIwNS_11char_traitsIwEENS_9allocatorIwEEE6assignEPKwm", scope: !204, file: !205, line: 998, type: !843, isLocal: false, isDefinition: false, scopeLine: 998, flags: DIFlagPublic | DIFlagPrototyped, isOptimized: false)
!867 = !DISubprogram(name: "assign", linkageName: "_ZNSt3__112basic_stringIwNS_11char_traitsIwEENS_9allocatorIwEEE6assignEPKw", scope: !204, file: !205, line: 999, type: !765, isLocal: false, isDefinition: false, scopeLine: 999, flags: DIFlagPublic | DIFlagPrototyped, isOptimized: false)
!868 = !DISubprogram(name: "assign", linkageName: "_ZNSt3__112basic_stringIwNS_11char_traitsIwEENS_9allocatorIwEEE6assignEmw", scope: !204, file: !205, line: 1000, type: !847, isLocal: false, isDefinition: false, scopeLine: 1000, flags: DIFlagPublic | DIFlagPrototyped, isOptimized: false)
!869 = !DISubprogram(name: "assign", linkageName: "_ZNSt3__112basic_stringIwNS_11char_traitsIwEENS_9allocatorIwEEE6assignESt16initializer_listIwE", scope: !204, file: !205, line: 1021, type: !762, isLocal: false, isDefinition: false, scopeLine: 1021, flags: DIFlagPublic | DIFlagPrototyped, isOptimized: false)
!870 = !DISubprogram(name: "insert", linkageName: "_ZNSt3__112basic_stringIwNS_11char_traitsIwEENS_9allocatorIwEEE6insertEmRKS5_", scope: !204, file: !205, line: 1025, type: !871, isLocal: false, isDefinition: false, scopeLine: 1025, flags: DIFlagPublic | DIFlagPrototyped, isOptimized: false)
!871 = !DISubroutineType(types: !872)
!872 = !{!757, !479, !219, !489}
!873 = !DISubprogram(name: "insert", linkageName: "_ZNSt3__112basic_stringIwNS_11char_traitsIwEENS_9allocatorIwEEE6insertEmNS_17basic_string_viewIwS2_EE", scope: !204, file: !205, line: 1027, type: !874, isLocal: false, isDefinition: false, scopeLine: 1027, flags: DIFlagPublic | DIFlagPrototyped, isOptimized: false)
!874 = !DISubroutineType(types: !875)
!875 = !{!757, !479, !219, !528}
!876 = !DISubprogram(name: "insert", linkageName: "_ZNSt3__112basic_stringIwNS_11char_traitsIwEENS_9allocatorIwEEE6insertEmRKS5_mm", scope: !204, file: !205, line: 1036, type: !877, isLocal: false, isDefinition: false, scopeLine: 1036, flags: DIFlagPublic | DIFlagPrototyped, isOptimized: false)
!877 = !DISubroutineType(types: !878)
!878 = !{!757, !479, !219, !489, !219, !219}
!879 = !DISubprogram(name: "insert", linkageName: "_ZNSt3__112basic_stringIwNS_11char_traitsIwEENS_9allocatorIwEEE6insertEmPKwm", scope: !204, file: !205, line: 1037, type: !880, isLocal: false, isDefinition: false, scopeLine: 1037, flags: DIFlagPublic | DIFlagPrototyped, isOptimized: false)
!880 = !DISubroutineType(types: !881)
!881 = !{!757, !479, !219, !767, !219}
!882 = !DISubprogram(name: "insert", linkageName: "_ZNSt3__112basic_stringIwNS_11char_traitsIwEENS_9allocatorIwEEE6insertEmPKw", scope: !204, file: !205, line: 1038, type: !883, isLocal: false, isDefinition: false, scopeLine: 1038, flags: DIFlagPublic | DIFlagPrototyped, isOptimized: false)
!883 = !DISubroutineType(types: !884)
!884 = !{!757, !479, !219, !767}
!885 = !DISubprogram(name: "insert", linkageName: "_ZNSt3__112basic_stringIwNS_11char_traitsIwEENS_9allocatorIwEEE6insertEmmw", scope: !204, file: !205, line: 1039, type: !886, isLocal: false, isDefinition: false, scopeLine: 1039, flags: DIFlagPublic | DIFlagPrototyped, isOptimized: false)
!886 = !DISubroutineType(types: !887)
!887 = !{!757, !479, !219, !219, !396}
!888 = !DISubprogram(name: "insert", linkageName: "_ZNSt3__112basic_stringIwNS_11char_traitsIwEENS_9allocatorIwEEE6insertENS_11__wrap_iterIPKwEEw", scope: !204, file: !205, line: 1040, type: !889, isLocal: false, isDefinition: false, scopeLine: 1040, flags: DIFlagPublic | DIFlagPrototyped, isOptimized: false)
!889 = !DISubroutineType(types: !890)
!890 = !{!775, !479, !780, !396}
!891 = !DISubprogram(name: "insert", linkageName: "_ZNSt3__112basic_stringIwNS_11char_traitsIwEENS_9allocatorIwEEE6insertENS_11__wrap_iterIPKwEEmw", scope: !204, file: !205, line: 1042, type: !892, isLocal: false, isDefinition: false, scopeLine: 1042, flags: DIFlagPublic | DIFlagPrototyped, isOptimized: false)
!892 = !DISubroutineType(types: !893)
!893 = !{!775, !479, !780, !219, !396}
!894 = !DISubprogram(name: "insert", linkageName: "_ZNSt3__112basic_stringIwNS_11char_traitsIwEENS_9allocatorIwEEE6insertENS_11__wrap_iterIPKwEESt16initializer_listIwE", scope: !204, file: !205, line: 1063, type: !895, isLocal: false, isDefinition: false, scopeLine: 1063, flags: DIFlagPublic | DIFlagPrototyped, isOptimized: false)
!895 = !DISubroutineType(types: !896)
!896 = !{!775, !479, !780, !723}
!897 = !DISubprogram(name: "erase", linkageName: "_ZNSt3__112basic_stringIwNS_11char_traitsIwEENS_9allocatorIwEEE5eraseEmm", scope: !204, file: !205, line: 1067, type: !898, isLocal: false, isDefinition: false, scopeLine: 1067, flags: DIFlagPublic | DIFlagPrototyped, isOptimized: false)
!898 = !DISubroutineType(types: !899)
!899 = !{!757, !479, !219, !219}
!900 = !DISubprogram(name: "erase", linkageName: "_ZNSt3__112basic_stringIwNS_11char_traitsIwEENS_9allocatorIwEEE5eraseENS_11__wrap_iterIPKwEE", scope: !204, file: !205, line: 1069, type: !901, isLocal: false, isDefinition: false, scopeLine: 1069, flags: DIFlagPublic | DIFlagPrototyped, isOptimized: false)
!901 = !DISubroutineType(types: !902)
!902 = !{!775, !479, !780}
!903 = !DISubprogram(name: "erase", linkageName: "_ZNSt3__112basic_stringIwNS_11char_traitsIwEENS_9allocatorIwEEE5eraseENS_11__wrap_iterIPKwEES9_", scope: !204, file: !205, line: 1071, type: !904, isLocal: false, isDefinition: false, scopeLine: 1071, flags: DIFlagPublic | DIFlagPrototyped, isOptimized: false)
!904 = !DISubroutineType(types: !905)
!905 = !{!775, !479, !780, !780}
!906 = !DISubprogram(name: "replace", linkageName: "_ZNSt3__112basic_stringIwNS_11char_traitsIwEENS_9allocatorIwEEE7replaceEmmRKS5_", scope: !204, file: !205, line: 1074, type: !907, isLocal: false, isDefinition: false, scopeLine: 1074, flags: DIFlagPublic | DIFlagPrototyped, isOptimized: false)
!907 = !DISubroutineType(types: !908)
!908 = !{!757, !479, !219, !219, !489}
!909 = !DISubprogram(name: "replace", linkageName: "_ZNSt3__112basic_stringIwNS_11char_traitsIwEENS_9allocatorIwEEE7replaceEmmNS_17basic_string_viewIwS2_EE", scope: !204, file: !205, line: 1076, type: !910, isLocal: false, isDefinition: false, scopeLine: 1076, flags: DIFlagPublic | DIFlagPrototyped, isOptimized: false)
!910 = !DISubroutineType(types: !911)
!911 = !{!757, !479, !219, !219, !528}
!912 = !DISubprogram(name: "replace", linkageName: "_ZNSt3__112basic_stringIwNS_11char_traitsIwEENS_9allocatorIwEEE7replaceEmmRKS5_mm", scope: !204, file: !205, line: 1077, type: !913, isLocal: false, isDefinition: false, scopeLine: 1077, flags: DIFlagPublic | DIFlagPrototyped, isOptimized: false)
!913 = !DISubroutineType(types: !914)
!914 = !{!757, !479, !219, !219, !489, !219, !219}
!915 = !DISubprogram(name: "replace", linkageName: "_ZNSt3__112basic_stringIwNS_11char_traitsIwEENS_9allocatorIwEEE7replaceEmmPKwm", scope: !204, file: !205, line: 1086, type: !916, isLocal: false, isDefinition: false, scopeLine: 1086, flags: DIFlagPublic | DIFlagPrototyped, isOptimized: false)
!916 = !DISubroutineType(types: !917)
!917 = !{!757, !479, !219, !219, !767, !219}
!918 = !DISubprogram(name: "replace", linkageName: "_ZNSt3__112basic_stringIwNS_11char_traitsIwEENS_9allocatorIwEEE7replaceEmmPKw", scope: !204, file: !205, line: 1087, type: !919, isLocal: false, isDefinition: false, scopeLine: 1087, flags: DIFlagPublic | DIFlagPrototyped, isOptimized: false)
!919 = !DISubroutineType(types: !920)
!920 = !{!757, !479, !219, !219, !767}
!921 = !DISubprogram(name: "replace", linkageName: "_ZNSt3__112basic_stringIwNS_11char_traitsIwEENS_9allocatorIwEEE7replaceEmmmw", scope: !204, file: !205, line: 1088, type: !922, isLocal: false, isDefinition: false, scopeLine: 1088, flags: DIFlagPublic | DIFlagPrototyped, isOptimized: false)
!922 = !DISubroutineType(types: !923)
!923 = !{!757, !479, !219, !219, !219, !396}
!924 = !DISubprogram(name: "replace", linkageName: "_ZNSt3__112basic_stringIwNS_11char_traitsIwEENS_9allocatorIwEEE7replaceENS_11__wrap_iterIPKwEES9_RKS5_", scope: !204, file: !205, line: 1090, type: !925, isLocal: false, isDefinition: false, scopeLine: 1090, flags: DIFlagPublic | DIFlagPrototyped, isOptimized: false)
!925 = !DISubroutineType(types: !926)
!926 = !{!757, !479, !780, !780, !489}
!927 = !DISubprogram(name: "replace", linkageName: "_ZNSt3__112basic_stringIwNS_11char_traitsIwEENS_9allocatorIwEEE7replaceENS_11__wrap_iterIPKwEES9_NS_17basic_string_viewIwS2_EE", scope: !204, file: !205, line: 1092, type: !928, isLocal: false, isDefinition: false, scopeLine: 1092, flags: DIFlagPublic | DIFlagPrototyped, isOptimized: false)
!928 = !DISubroutineType(types: !929)
!929 = !{!757, !479, !780, !780, !528}
!930 = !DISubprogram(name: "replace", linkageName: "_ZNSt3__112basic_stringIwNS_11char_traitsIwEENS_9allocatorIwEEE7replaceENS_11__wrap_iterIPKwEES9_S8_m", scope: !204, file: !205, line: 1094, type: !931, isLocal: false, isDefinition: false, scopeLine: 1094, flags: DIFlagPublic | DIFlagPrototyped, isOptimized: false)
!931 = !DISubroutineType(types: !932)
!932 = !{!757, !479, !780, !780, !767, !219}
!933 = !DISubprogram(name: "replace", linkageName: "_ZNSt3__112basic_stringIwNS_11char_traitsIwEENS_9allocatorIwEEE7replaceENS_11__wrap_iterIPKwEES9_S8_", scope: !204, file: !205, line: 1096, type: !934, isLocal: false, isDefinition: false, scopeLine: 1096, flags: DIFlagPublic | DIFlagPrototyped, isOptimized: false)
!934 = !DISubroutineType(types: !935)
!935 = !{!757, !479, !780, !780, !767}
!936 = !DISubprogram(name: "replace", linkageName: "_ZNSt3__112basic_stringIwNS_11char_traitsIwEENS_9allocatorIwEEE7replaceENS_11__wrap_iterIPKwEES9_mw", scope: !204, file: !205, line: 1098, type: !937, isLocal: false, isDefinition: false, scopeLine: 1098, flags: DIFlagPublic | DIFlagPrototyped, isOptimized: false)
!937 = !DISubroutineType(types: !938)
!938 = !{!757, !479, !780, !780, !219, !396}
!939 = !DISubprogram(name: "replace", linkageName: "_ZNSt3__112basic_stringIwNS_11char_traitsIwEENS_9allocatorIwEEE7replaceENS_11__wrap_iterIPKwEES9_St16initializer_listIwE", scope: !204, file: !205, line: 1109, type: !940, isLocal: false, isDefinition: false, scopeLine: 1109, flags: DIFlagPublic | DIFlagPrototyped, isOptimized: false)
!940 = !DISubroutineType(types: !941)
!941 = !{!757, !479, !780, !780, !723}
!942 = !DISubprogram(name: "copy", linkageName: "_ZNKSt3__112basic_stringIwNS_11char_traitsIwEENS_9allocatorIwEEE4copyEPwmm", scope: !204, file: !205, line: 1113, type: !943, isLocal: false, isDefinition: false, scopeLine: 1113, flags: DIFlagPublic | DIFlagPrototyped, isOptimized: false)
!943 = !DISubroutineType(types: !944)
!944 = !{!219, !753, !945, !219, !219}
!945 = !DIDerivedType(tag: DW_TAG_pointer_type, baseType: !396, size: 64)
!946 = !DISubprogram(name: "substr", linkageName: "_ZNKSt3__112basic_stringIwNS_11char_traitsIwEENS_9allocatorIwEEE6substrEmm", scope: !204, file: !205, line: 1115, type: !947, isLocal: false, isDefinition: false, scopeLine: 1115, flags: DIFlagPublic | DIFlagPrototyped, isOptimized: false)
!947 = !DISubroutineType(types: !948)
!948 = !{!204, !753, !219, !219}
!949 = !DISubprogram(name: "swap", linkageName: "_ZNSt3__112basic_stringIwNS_11char_traitsIwEENS_9allocatorIwEEE4swapERS5_", scope: !204, file: !205, line: 1118, type: !950, isLocal: false, isDefinition: false, scopeLine: 1118, flags: DIFlagPublic | DIFlagPrototyped, isOptimized: false)
!950 = !DISubroutineType(types: !951)
!951 = !{null, !479, !757}
!952 = !DISubprogram(name: "c_str", linkageName: "_ZNKSt3__112basic_stringIwNS_11char_traitsIwEENS_9allocatorIwEEE5c_strEv", scope: !204, file: !205, line: 1127, type: !953, isLocal: false, isDefinition: false, scopeLine: 1127, flags: DIFlagPublic | DIFlagPrototyped, isOptimized: false)
!953 = !DISubroutineType(types: !954)
!954 = !{!767, !753}
!955 = !DISubprogram(name: "data", linkageName: "_ZNKSt3__112basic_stringIwNS_11char_traitsIwEENS_9allocatorIwEEE4dataEv", scope: !204, file: !205, line: 1129, type: !953, isLocal: false, isDefinition: false, scopeLine: 1129, flags: DIFlagPublic | DIFlagPrototyped, isOptimized: false)
!956 = !DISubprogram(name: "get_allocator", linkageName: "_ZNKSt3__112basic_stringIwNS_11char_traitsIwEENS_9allocatorIwEEE13get_allocatorEv", scope: !204, file: !205, line: 1136, type: !957, isLocal: false, isDefinition: false, scopeLine: 1136, flags: DIFlagPublic | DIFlagPrototyped, isOptimized: false)
!957 = !DISubroutineType(types: !958)
!958 = !{!485, !753}
!959 = !DISubprogram(name: "find", linkageName: "_ZNKSt3__112basic_stringIwNS_11char_traitsIwEENS_9allocatorIwEEE4findERKS5_m", scope: !204, file: !205, line: 1139, type: !960, isLocal: false, isDefinition: false, scopeLine: 1139, flags: DIFlagPublic | DIFlagPrototyped, isOptimized: false)
!960 = !DISubroutineType(types: !961)
!961 = !{!219, !753, !489, !219}
!962 = !DISubprogram(name: "find", linkageName: "_ZNKSt3__112basic_stringIwNS_11char_traitsIwEENS_9allocatorIwEEE4findENS_17basic_string_viewIwS2_EEm", scope: !204, file: !205, line: 1141, type: !963, isLocal: false, isDefinition: false, scopeLine: 1141, flags: DIFlagPublic | DIFlagPrototyped, isOptimized: false)
!963 = !DISubroutineType(types: !964)
!964 = !{!219, !753, !528, !219}
!965 = !DISubprogram(name: "find", linkageName: "_ZNKSt3__112basic_stringIwNS_11char_traitsIwEENS_9allocatorIwEEE4findEPKwmm", scope: !204, file: !205, line: 1142, type: !966, isLocal: false, isDefinition: false, scopeLine: 1142, flags: DIFlagPublic | DIFlagPrototyped, isOptimized: false)
!966 = !DISubroutineType(types: !967)
!967 = !{!219, !753, !767, !219, !219}
!968 = !DISubprogram(name: "find", linkageName: "_ZNKSt3__112basic_stringIwNS_11char_traitsIwEENS_9allocatorIwEEE4findEPKwm", scope: !204, file: !205, line: 1144, type: !969, isLocal: false, isDefinition: false, scopeLine: 1144, flags: DIFlagPublic | DIFlagPrototyped, isOptimized: false)
!969 = !DISubroutineType(types: !970)
!970 = !{!219, !753, !767, !219}
!971 = !DISubprogram(name: "find", linkageName: "_ZNKSt3__112basic_stringIwNS_11char_traitsIwEENS_9allocatorIwEEE4findEwm", scope: !204, file: !205, line: 1145, type: !972, isLocal: false, isDefinition: false, scopeLine: 1145, flags: DIFlagPublic | DIFlagPrototyped, isOptimized: false)
!972 = !DISubroutineType(types: !973)
!973 = !{!219, !753, !396, !219}
!974 = !DISubprogram(name: "rfind", linkageName: "_ZNKSt3__112basic_stringIwNS_11char_traitsIwEENS_9allocatorIwEEE5rfindERKS5_m", scope: !204, file: !205, line: 1148, type: !960, isLocal: false, isDefinition: false, scopeLine: 1148, flags: DIFlagPublic | DIFlagPrototyped, isOptimized: false)
!975 = !DISubprogram(name: "rfind", linkageName: "_ZNKSt3__112basic_stringIwNS_11char_traitsIwEENS_9allocatorIwEEE5rfindENS_17basic_string_viewIwS2_EEm", scope: !204, file: !205, line: 1150, type: !963, isLocal: false, isDefinition: false, scopeLine: 1150, flags: DIFlagPublic | DIFlagPrototyped, isOptimized: false)
!976 = !DISubprogram(name: "rfind", linkageName: "_ZNKSt3__112basic_stringIwNS_11char_traitsIwEENS_9allocatorIwEEE5rfindEPKwmm", scope: !204, file: !205, line: 1151, type: !966, isLocal: false, isDefinition: false, scopeLine: 1151, flags: DIFlagPublic | DIFlagPrototyped, isOptimized: false)
!977 = !DISubprogram(name: "rfind", linkageName: "_ZNKSt3__112basic_stringIwNS_11char_traitsIwEENS_9allocatorIwEEE5rfindEPKwm", scope: !204, file: !205, line: 1153, type: !969, isLocal: false, isDefinition: false, scopeLine: 1153, flags: DIFlagPublic | DIFlagPrototyped, isOptimized: false)
!978 = !DISubprogram(name: "rfind", linkageName: "_ZNKSt3__112basic_stringIwNS_11char_traitsIwEENS_9allocatorIwEEE5rfindEwm", scope: !204, file: !205, line: 1154, type: !972, isLocal: false, isDefinition: false, scopeLine: 1154, flags: DIFlagPublic | DIFlagPrototyped, isOptimized: false)
!979 = !DISubprogram(name: "find_first_of", linkageName: "_ZNKSt3__112basic_stringIwNS_11char_traitsIwEENS_9allocatorIwEEE13find_first_ofERKS5_m", scope: !204, file: !205, line: 1157, type: !960, isLocal: false, isDefinition: false, scopeLine: 1157, flags: DIFlagPublic | DIFlagPrototyped, isOptimized: false)
!980 = !DISubprogram(name: "find_first_of", linkageName: "_ZNKSt3__112basic_stringIwNS_11char_traitsIwEENS_9allocatorIwEEE13find_first_ofENS_17basic_string_viewIwS2_EEm", scope: !204, file: !205, line: 1159, type: !963, isLocal: false, isDefinition: false, scopeLine: 1159, flags: DIFlagPublic | DIFlagPrototyped, isOptimized: false)
!981 = !DISubprogram(name: "find_first_of", linkageName: "_ZNKSt3__112basic_stringIwNS_11char_traitsIwEENS_9allocatorIwEEE13find_first_ofEPKwmm", scope: !204, file: !205, line: 1160, type: !966, isLocal: false, isDefinition: false, scopeLine: 1160, flags: DIFlagPublic | DIFlagPrototyped, isOptimized: false)
!982 = !DISubprogram(name: "find_first_of", linkageName: "_ZNKSt3__112basic_stringIwNS_11char_traitsIwEENS_9allocatorIwEEE13find_first_ofEPKwm", scope: !204, file: !205, line: 1162, type: !969, isLocal: false, isDefinition: false, scopeLine: 1162, flags: DIFlagPublic | DIFlagPrototyped, isOptimized: false)
!983 = !DISubprogram(name: "find_first_of", linkageName: "_ZNKSt3__112basic_stringIwNS_11char_traitsIwEENS_9allocatorIwEEE13find_first_ofEwm", scope: !204, file: !205, line: 1164, type: !972, isLocal: false, isDefinition: false, scopeLine: 1164, flags: DIFlagPublic | DIFlagPrototyped, isOptimized: false)
!984 = !DISubprogram(name: "find_last_of", linkageName: "_ZNKSt3__112basic_stringIwNS_11char_traitsIwEENS_9allocatorIwEEE12find_last_ofERKS5_m", scope: !204, file: !205, line: 1167, type: !960, isLocal: false, isDefinition: false, scopeLine: 1167, flags: DIFlagPublic | DIFlagPrototyped, isOptimized: false)
!985 = !DISubprogram(name: "find_last_of", linkageName: "_ZNKSt3__112basic_stringIwNS_11char_traitsIwEENS_9allocatorIwEEE12find_last_ofENS_17basic_string_viewIwS2_EEm", scope: !204, file: !205, line: 1169, type: !963, isLocal: false, isDefinition: false, scopeLine: 1169, flags: DIFlagPublic | DIFlagPrototyped, isOptimized: false)
!986 = !DISubprogram(name: "find_last_of", linkageName: "_ZNKSt3__112basic_stringIwNS_11char_traitsIwEENS_9allocatorIwEEE12find_last_ofEPKwmm", scope: !204, file: !205, line: 1170, type: !966, isLocal: false, isDefinition: false, scopeLine: 1170, flags: DIFlagPublic | DIFlagPrototyped, isOptimized: false)
!987 = !DISubprogram(name: "find_last_of", linkageName: "_ZNKSt3__112basic_stringIwNS_11char_traitsIwEENS_9allocatorIwEEE12find_last_ofEPKwm", scope: !204, file: !205, line: 1172, type: !969, isLocal: false, isDefinition: false, scopeLine: 1172, flags: DIFlagPublic | DIFlagPrototyped, isOptimized: false)
!988 = !DISubprogram(name: "find_last_of", linkageName: "_ZNKSt3__112basic_stringIwNS_11char_traitsIwEENS_9allocatorIwEEE12find_last_ofEwm", scope: !204, file: !205, line: 1174, type: !972, isLocal: false, isDefinition: false, scopeLine: 1174, flags: DIFlagPublic | DIFlagPrototyped, isOptimized: false)
!989 = !DISubprogram(name: "find_first_not_of", linkageName: "_ZNKSt3__112basic_stringIwNS_11char_traitsIwEENS_9allocatorIwEEE17find_first_not_ofERKS5_m", scope: !204, file: !205, line: 1177, type: !960, isLocal: false, isDefinition: false, scopeLine: 1177, flags: DIFlagPublic | DIFlagPrototyped, isOptimized: false)
!990 = !DISubprogram(name: "find_first_not_of", linkageName: "_ZNKSt3__112basic_stringIwNS_11char_traitsIwEENS_9allocatorIwEEE17find_first_not_ofENS_17basic_string_viewIwS2_EEm", scope: !204, file: !205, line: 1179, type: !963, isLocal: false, isDefinition: false, scopeLine: 1179, flags: DIFlagPublic | DIFlagPrototyped, isOptimized: false)
!991 = !DISubprogram(name: "find_first_not_of", linkageName: "_ZNKSt3__112basic_stringIwNS_11char_traitsIwEENS_9allocatorIwEEE17find_first_not_ofEPKwmm", scope: !204, file: !205, line: 1180, type: !966, isLocal: false, isDefinition: false, scopeLine: 1180, flags: DIFlagPublic | DIFlagPrototyped, isOptimized: false)
!992 = !DISubprogram(name: "find_first_not_of", linkageName: "_ZNKSt3__112basic_stringIwNS_11char_traitsIwEENS_9allocatorIwEEE17find_first_not_ofEPKwm", scope: !204, file: !205, line: 1182, type: !969, isLocal: false, isDefinition: false, scopeLine: 1182, flags: DIFlagPublic | DIFlagPrototyped, isOptimized: false)
!993 = !DISubprogram(name: "find_first_not_of", linkageName: "_ZNKSt3__112basic_stringIwNS_11char_traitsIwEENS_9allocatorIwEEE17find_first_not_ofEwm", scope: !204, file: !205, line: 1184, type: !972, isLocal: false, isDefinition: false, scopeLine: 1184, flags: DIFlagPublic | DIFlagPrototyped, isOptimized: false)
!994 = !DISubprogram(name: "find_last_not_of", linkageName: "_ZNKSt3__112basic_stringIwNS_11char_traitsIwEENS_9allocatorIwEEE16find_last_not_ofERKS5_m", scope: !204, file: !205, line: 1187, type: !960, isLocal: false, isDefinition: false, scopeLine: 1187, flags: DIFlagPublic | DIFlagPrototyped, isOptimized: false)
!995 = !DISubprogram(name: "find_last_not_of", linkageName: "_ZNKSt3__112basic_stringIwNS_11char_traitsIwEENS_9allocatorIwEEE16find_last_not_ofENS_17basic_string_viewIwS2_EEm", scope: !204, file: !205, line: 1189, type: !963, isLocal: false, isDefinition: false, scopeLine: 1189, flags: DIFlagPublic | DIFlagPrototyped, isOptimized: false)
!996 = !DISubprogram(name: "find_last_not_of", linkageName: "_ZNKSt3__112basic_stringIwNS_11char_traitsIwEENS_9allocatorIwEEE16find_last_not_ofEPKwmm", scope: !204, file: !205, line: 1190, type: !966, isLocal: false, isDefinition: false, scopeLine: 1190, flags: DIFlagPublic | DIFlagPrototyped, isOptimized: false)
!997 = !DISubprogram(name: "find_last_not_of", linkageName: "_ZNKSt3__112basic_stringIwNS_11char_traitsIwEENS_9allocatorIwEEE16find_last_not_ofEPKwm", scope: !204, file: !205, line: 1192, type: !969, isLocal: false, isDefinition: false, scopeLine: 1192, flags: DIFlagPublic | DIFlagPrototyped, isOptimized: false)
!998 = !DISubprogram(name: "find_last_not_of", linkageName: "_ZNKSt3__112basic_stringIwNS_11char_traitsIwEENS_9allocatorIwEEE16find_last_not_ofEwm", scope: !204, file: !205, line: 1194, type: !972, isLocal: false, isDefinition: false, scopeLine: 1194, flags: DIFlagPublic | DIFlagPrototyped, isOptimized: false)
!999 = !DISubprogram(name: "compare", linkageName: "_ZNKSt3__112basic_stringIwNS_11char_traitsIwEENS_9allocatorIwEEE7compareERKS5_", scope: !204, file: !205, line: 1197, type: !1000, isLocal: false, isDefinition: false, scopeLine: 1197, flags: DIFlagPublic | DIFlagPrototyped, isOptimized: false)
!1000 = !DISubroutineType(types: !1001)
!1001 = !{!14, !753, !489}
!1002 = !DISubprogram(name: "compare", linkageName: "_ZNKSt3__112basic_stringIwNS_11char_traitsIwEENS_9allocatorIwEEE7compareENS_17basic_string_viewIwS2_EE", scope: !204, file: !205, line: 1199, type: !1003, isLocal: false, isDefinition: false, scopeLine: 1199, flags: DIFlagPublic | DIFlagPrototyped, isOptimized: false)
!1003 = !DISubroutineType(types: !1004)
!1004 = !{!14, !753, !528}
!1005 = !DISubprogram(name: "compare", linkageName: "_ZNKSt3__112basic_stringIwNS_11char_traitsIwEENS_9allocatorIwEEE7compareEmmNS_17basic_string_viewIwS2_EE", scope: !204, file: !205, line: 1201, type: !1006, isLocal: false, isDefinition: false, scopeLine: 1201, flags: DIFlagPublic | DIFlagPrototyped, isOptimized: false)
!1006 = !DISubroutineType(types: !1007)
!1007 = !{!14, !753, !219, !219, !528}
!1008 = !DISubprogram(name: "compare", linkageName: "_ZNKSt3__112basic_stringIwNS_11char_traitsIwEENS_9allocatorIwEEE7compareEmmRKS5_", scope: !204, file: !205, line: 1203, type: !1009, isLocal: false, isDefinition: false, scopeLine: 1203, flags: DIFlagPublic | DIFlagPrototyped, isOptimized: false)
!1009 = !DISubroutineType(types: !1010)
!1010 = !{!14, !753, !219, !219, !489}
!1011 = !DISubprogram(name: "compare", linkageName: "_ZNKSt3__112basic_stringIwNS_11char_traitsIwEENS_9allocatorIwEEE7compareEmmRKS5_mm", scope: !204, file: !205, line: 1204, type: !1012, isLocal: false, isDefinition: false, scopeLine: 1204, flags: DIFlagPublic | DIFlagPrototyped, isOptimized: false)
!1012 = !DISubroutineType(types: !1013)
!1013 = !{!14, !753, !219, !219, !489, !219, !219}
!1014 = !DISubprogram(name: "compare", linkageName: "_ZNKSt3__112basic_stringIwNS_11char_traitsIwEENS_9allocatorIwEEE7compareEPKw", scope: !204, file: !205, line: 1213, type: !1015, isLocal: false, isDefinition: false, scopeLine: 1213, flags: DIFlagPublic | DIFlagPrototyped, isOptimized: false)
!1015 = !DISubroutineType(types: !1016)
!1016 = !{!14, !753, !767}
!1017 = !DISubprogram(name: "compare", linkageName: "_ZNKSt3__112basic_stringIwNS_11char_traitsIwEENS_9allocatorIwEEE7compareEmmPKw", scope: !204, file: !205, line: 1214, type: !1018, isLocal: false, isDefinition: false, scopeLine: 1214, flags: DIFlagPublic | DIFlagPrototyped, isOptimized: false)
!1018 = !DISubroutineType(types: !1019)
!1019 = !{!14, !753, !219, !219, !767}
!1020 = !DISubprogram(name: "compare", linkageName: "_ZNKSt3__112basic_stringIwNS_11char_traitsIwEENS_9allocatorIwEEE7compareEmmPKwm", scope: !204, file: !205, line: 1215, type: !1021, isLocal: false, isDefinition: false, scopeLine: 1215, flags: DIFlagPublic | DIFlagPrototyped, isOptimized: false)
!1021 = !DISubroutineType(types: !1022)
!1022 = !{!14, !753, !219, !219, !767, !219}
!1023 = !DISubprogram(name: "__invariants", linkageName: "_ZNKSt3__112basic_stringIwNS_11char_traitsIwEENS_9allocatorIwEEE12__invariantsEv", scope: !204, file: !205, line: 1217, type: !816, isLocal: false, isDefinition: false, scopeLine: 1217, flags: DIFlagPublic | DIFlagPrototyped, isOptimized: false)
!1024 = !DISubprogram(name: "__is_long", linkageName: "_ZNKSt3__112basic_stringIwNS_11char_traitsIwEENS_9allocatorIwEEE9__is_longEv", scope: !204, file: !205, line: 1220, type: !816, isLocal: false, isDefinition: false, scopeLine: 1220, flags: DIFlagPublic | DIFlagPrototyped, isOptimized: false)
!1025 = !DISubprogram(name: "__alloc", linkageName: "_ZNSt3__112basic_stringIwNS_11char_traitsIwEENS_9allocatorIwEEE7__allocEv", scope: !204, file: !205, line: 1234, type: !1026, isLocal: false, isDefinition: false, scopeLine: 1234, flags: DIFlagPrototyped, isOptimized: false)
!1026 = !DISubroutineType(types: !1027)
!1027 = !{!1028, !479}
!1028 = !DIDerivedType(tag: DW_TAG_reference_type, baseType: !485, size: 64)
!1029 = !DISubprogram(name: "__alloc", linkageName: "_ZNKSt3__112basic_stringIwNS_11char_traitsIwEENS_9allocatorIwEEE7__allocEv", scope: !204, file: !205, line: 1237, type: !1030, isLocal: false, isDefinition: false, scopeLine: 1237, flags: DIFlagPrototyped, isOptimized: false)
!1030 = !DISubroutineType(types: !1031)
!1031 = !{!483, !753}
!1032 = !DISubprogram(name: "__set_short_size", linkageName: "_ZNSt3__112basic_stringIwNS_11char_traitsIwEENS_9allocatorIwEEE16__set_short_sizeEm", scope: !204, file: !205, line: 1261, type: !810, isLocal: false, isDefinition: false, scopeLine: 1261, flags: DIFlagPrototyped, isOptimized: false)
!1033 = !DISubprogram(name: "__get_short_size", linkageName: "_ZNKSt3__112basic_stringIwNS_11char_traitsIwEENS_9allocatorIwEEE16__get_short_sizeEv", scope: !204, file: !205, line: 1269, type: !801, isLocal: false, isDefinition: false, scopeLine: 1269, flags: DIFlagPrototyped, isOptimized: false)
!1034 = !DISubprogram(name: "__set_long_size", linkageName: "_ZNSt3__112basic_stringIwNS_11char_traitsIwEENS_9allocatorIwEEE15__set_long_sizeEm", scope: !204, file: !205, line: 1279, type: !810, isLocal: false, isDefinition: false, scopeLine: 1279, flags: DIFlagPrototyped, isOptimized: false)
!1035 = !DISubprogram(name: "__get_long_size", linkageName: "_ZNKSt3__112basic_stringIwNS_11char_traitsIwEENS_9allocatorIwEEE15__get_long_sizeEv", scope: !204, file: !205, line: 1282, type: !801, isLocal: false, isDefinition: false, scopeLine: 1282, flags: DIFlagPrototyped, isOptimized: false)
!1036 = !DISubprogram(name: "__set_size", linkageName: "_ZNSt3__112basic_stringIwNS_11char_traitsIwEENS_9allocatorIwEEE10__set_sizeEm", scope: !204, file: !205, line: 1285, type: !810, isLocal: false, isDefinition: false, scopeLine: 1285, flags: DIFlagPrototyped, isOptimized: false)
!1037 = !DISubprogram(name: "__set_long_cap", linkageName: "_ZNSt3__112basic_stringIwNS_11char_traitsIwEENS_9allocatorIwEEE14__set_long_capEm", scope: !204, file: !205, line: 1289, type: !810, isLocal: false, isDefinition: false, scopeLine: 1289, flags: DIFlagPrototyped, isOptimized: false)
!1038 = !DISubprogram(name: "__get_long_cap", linkageName: "_ZNKSt3__112basic_stringIwNS_11char_traitsIwEENS_9allocatorIwEEE14__get_long_capEv", scope: !204, file: !205, line: 1292, type: !801, isLocal: false, isDefinition: false, scopeLine: 1292, flags: DIFlagPrototyped, isOptimized: false)
!1039 = !DISubprogram(name: "__set_long_pointer", linkageName: "_ZNSt3__112basic_stringIwNS_11char_traitsIwEENS_9allocatorIwEEE18__set_long_pointerEPw", scope: !204, file: !205, line: 1296, type: !1040, isLocal: false, isDefinition: false, scopeLine: 1296, flags: DIFlagPrototyped, isOptimized: false)
!1040 = !DISubroutineType(types: !1041)
!1041 = !{null, !479, !386}
!1042 = !DISubprogram(name: "__get_long_pointer", linkageName: "_ZNSt3__112basic_stringIwNS_11char_traitsIwEENS_9allocatorIwEEE18__get_long_pointerEv", scope: !204, file: !205, line: 1299, type: !1043, isLocal: false, isDefinition: false, scopeLine: 1299, flags: DIFlagPrototyped, isOptimized: false)
!1043 = !DISubroutineType(types: !1044)
!1044 = !{!386, !479}
!1045 = !DISubprogram(name: "__get_long_pointer", linkageName: "_ZNKSt3__112basic_stringIwNS_11char_traitsIwEENS_9allocatorIwEEE18__get_long_pointerEv", scope: !204, file: !205, line: 1302, type: !1046, isLocal: false, isDefinition: false, scopeLine: 1302, flags: DIFlagPrototyped, isOptimized: false)
!1046 = !DISubroutineType(types: !1047)
!1047 = !{!1048, !753}
!1048 = !DIDerivedType(tag: DW_TAG_typedef, name: "const_pointer", scope: !204, file: !205, line: 645, baseType: !1049)
!1049 = !DIDerivedType(tag: DW_TAG_typedef, name: "const_pointer", scope: !221, file: !22, line: 1473, baseType: !1050)
!1050 = !DIDerivedType(tag: DW_TAG_typedef, name: "type", scope: !1051, file: !22, line: 1033, baseType: !251)
!1051 = distinct !DICompositeType(tag: DW_TAG_structure_type, name: "__const_pointer<wchar_t, wchar_t *, std::__1::allocator<wchar_t>, true>", scope: !23, file: !22, line: 1031, size: 8, elements: !171, templateParams: !1052, identifier: "_ZTSNSt3__115__const_pointerIwPwNS_9allocatorIwEELb1EEE")
!1052 = !{!230, !287, !288, !177}
!1053 = !DISubprogram(name: "__get_short_pointer", linkageName: "_ZNSt3__112basic_stringIwNS_11char_traitsIwEENS_9allocatorIwEEE19__get_short_pointerEv", scope: !204, file: !205, line: 1305, type: !1043, isLocal: false, isDefinition: false, scopeLine: 1305, flags: DIFlagPrototyped, isOptimized: false)
!1054 = !DISubprogram(name: "__get_short_pointer", linkageName: "_ZNKSt3__112basic_stringIwNS_11char_traitsIwEENS_9allocatorIwEEE19__get_short_pointerEv", scope: !204, file: !205, line: 1308, type: !1046, isLocal: false, isDefinition: false, scopeLine: 1308, flags: DIFlagPrototyped, isOptimized: false)
!1055 = !DISubprogram(name: "__get_pointer", linkageName: "_ZNSt3__112basic_stringIwNS_11char_traitsIwEENS_9allocatorIwEEE13__get_pointerEv", scope: !204, file: !205, line: 1311, type: !1043, isLocal: false, isDefinition: false, scopeLine: 1311, flags: DIFlagPrototyped, isOptimized: false)
!1056 = !DISubprogram(name: "__get_pointer", linkageName: "_ZNKSt3__112basic_stringIwNS_11char_traitsIwEENS_9allocatorIwEEE13__get_pointerEv", scope: !204, file: !205, line: 1314, type: !1046, isLocal: false, isDefinition: false, scopeLine: 1314, flags: DIFlagPrototyped, isOptimized: false)
!1057 = !DISubprogram(name: "__zero", linkageName: "_ZNSt3__112basic_stringIwNS_11char_traitsIwEENS_9allocatorIwEEE6__zeroEv", scope: !204, file: !205, line: 1318, type: !477, isLocal: false, isDefinition: false, scopeLine: 1318, flags: DIFlagPrototyped, isOptimized: false)
!1058 = !DISubprogram(name: "__recommend", linkageName: "_ZNSt3__112basic_stringIwNS_11char_traitsIwEENS_9allocatorIwEEE11__recommendEm", scope: !204, file: !205, line: 1331, type: !1059, isLocal: false, isDefinition: false, scopeLine: 1331, flags: DIFlagPrototyped, isOptimized: false)
!1059 = !DISubroutineType(types: !1060)
!1060 = !{!219, !219}
!1061 = !DISubprogram(name: "__init", linkageName: "_ZNSt3__112basic_stringIwNS_11char_traitsIwEENS_9allocatorIwEEE6__initEPKwmm", scope: !204, file: !205, line: 1337, type: !1062, isLocal: false, isDefinition: false, scopeLine: 1337, flags: DIFlagPrototyped, isOptimized: false)
!1062 = !DISubroutineType(types: !1063)
!1063 = !{null, !479, !767, !219, !219}
!1064 = !DISubprogram(name: "__init", linkageName: "_ZNSt3__112basic_stringIwNS_11char_traitsIwEENS_9allocatorIwEEE6__initEPKwm", scope: !204, file: !205, line: 1339, type: !1065, isLocal: false, isDefinition: false, scopeLine: 1339, flags: DIFlagPrototyped, isOptimized: false)
!1065 = !DISubroutineType(types: !1066)
!1066 = !{null, !479, !767, !219}
!1067 = !DISubprogram(name: "__init", linkageName: "_ZNSt3__112basic_stringIwNS_11char_traitsIwEENS_9allocatorIwEEE6__initEmw", scope: !204, file: !205, line: 1341, type: !807, isLocal: false, isDefinition: false, scopeLine: 1341, flags: DIFlagPrototyped, isOptimized: false)
!1068 = !DISubprogram(name: "__grow_by", linkageName: "_ZNSt3__112basic_stringIwNS_11char_traitsIwEENS_9allocatorIwEEE9__grow_byEmmmmmm", scope: !204, file: !205, line: 1361, type: !1069, isLocal: false, isDefinition: false, scopeLine: 1361, flags: DIFlagPrototyped, isOptimized: false)
!1069 = !DISubroutineType(types: !1070)
!1070 = !{null, !479, !219, !219, !219, !219, !219, !219}
!1071 = !DISubprogram(name: "__grow_by_and_replace", linkageName: "_ZNSt3__112basic_stringIwNS_11char_traitsIwEENS_9allocatorIwEEE21__grow_by_and_replaceEmmmmmmPKw", scope: !204, file: !205, line: 1363, type: !1072, isLocal: false, isDefinition: false, scopeLine: 1363, flags: DIFlagPrototyped, isOptimized: false)
!1072 = !DISubroutineType(types: !1073)
!1073 = !{null, !479, !219, !219, !219, !219, !219, !219, !767}
!1074 = !DISubprogram(name: "__erase_to_end", linkageName: "_ZNSt3__112basic_stringIwNS_11char_traitsIwEENS_9allocatorIwEEE14__erase_to_endEm", scope: !204, file: !205, line: 1368, type: !810, isLocal: false, isDefinition: false, scopeLine: 1368, flags: DIFlagPrototyped, isOptimized: false)
!1075 = !DISubprogram(name: "__copy_assign_alloc", linkageName: "_ZNSt3__112basic_stringIwNS_11char_traitsIwEENS_9allocatorIwEEE19__copy_assign_allocERKS5_", scope: !204, file: !205, line: 1371, type: !487, isLocal: false, isDefinition: false, scopeLine: 1371, flags: DIFlagPrototyped, isOptimized: false)
!1076 = !DISubprogram(name: "__copy_assign_alloc", linkageName: "_ZNSt3__112basic_stringIwNS_11char_traitsIwEENS_9allocatorIwEEE19__copy_assign_allocERKS5_NS_17integral_constantIbLb1EEE", scope: !204, file: !205, line: 1376, type: !1077, isLocal: false, isDefinition: false, scopeLine: 1376, flags: DIFlagPrototyped, isOptimized: false)
!1077 = !DISubroutineType(types: !1078)
!1078 = !{null, !479, !489, !320}
!1079 = !DISubprogram(name: "__copy_assign_alloc", linkageName: "_ZNSt3__112basic_stringIwNS_11char_traitsIwEENS_9allocatorIwEEE19__copy_assign_allocERKS5_NS_17integral_constantIbLb0EEE", scope: !204, file: !205, line: 1403, type: !1080, isLocal: false, isDefinition: false, scopeLine: 1403, flags: DIFlagPrototyped, isOptimized: false)
!1080 = !DISubroutineType(types: !1081)
!1081 = !{null, !479, !489, !337}
!1082 = !DISubprogram(name: "__move_assign", linkageName: "_ZNSt3__112basic_stringIwNS_11char_traitsIwEENS_9allocatorIwEEE13__move_assignERS5_NS_17integral_constantIbLb0EEE", scope: !204, file: !205, line: 1408, type: !1083, isLocal: false, isDefinition: false, scopeLine: 1408, flags: DIFlagPrototyped, isOptimized: false)
!1083 = !DISubroutineType(types: !1084)
!1084 = !{null, !479, !757, !337}
!1085 = !DISubprogram(name: "__move_assign", linkageName: "_ZNSt3__112basic_stringIwNS_11char_traitsIwEENS_9allocatorIwEEE13__move_assignERS5_NS_17integral_constantIbLb1EEE", scope: !204, file: !205, line: 1411, type: !1086, isLocal: false, isDefinition: false, scopeLine: 1411, flags: DIFlagPrototyped, isOptimized: false)
!1086 = !DISubroutineType(types: !1087)
!1087 = !{null, !479, !757, !320}
!1088 = !DISubprogram(name: "__move_assign_alloc", linkageName: "_ZNSt3__112basic_stringIwNS_11char_traitsIwEENS_9allocatorIwEEE19__move_assign_allocERS5_", scope: !204, file: !205, line: 1421, type: !950, isLocal: false, isDefinition: false, scopeLine: 1421, flags: DIFlagPrototyped, isOptimized: false)
!1089 = !DISubprogram(name: "__move_assign_alloc", linkageName: "_ZNSt3__112basic_stringIwNS_11char_traitsIwEENS_9allocatorIwEEE19__move_assign_allocERS5_NS_17integral_constantIbLb1EEE", scope: !204, file: !205, line: 1429, type: !1086, isLocal: false, isDefinition: false, scopeLine: 1429, flags: DIFlagPrototyped, isOptimized: false)
!1090 = !DISubprogram(name: "__move_assign_alloc", linkageName: "_ZNSt3__112basic_stringIwNS_11char_traitsIwEENS_9allocatorIwEEE19__move_assign_allocERS5_NS_17integral_constantIbLb0EEE", scope: !204, file: !205, line: 1436, type: !1083, isLocal: false, isDefinition: false, scopeLine: 1436, flags: DIFlagPrototyped, isOptimized: false)
!1091 = !DISubprogram(name: "__invalidate_all_iterators", linkageName: "_ZNSt3__112basic_stringIwNS_11char_traitsIwEENS_9allocatorIwEEE26__invalidate_all_iteratorsEv", scope: !204, file: !205, line: 1440, type: !477, isLocal: false, isDefinition: false, scopeLine: 1440, flags: DIFlagPrototyped, isOptimized: false)
!1092 = !DISubprogram(name: "__invalidate_iterators_past", linkageName: "_ZNSt3__112basic_stringIwNS_11char_traitsIwEENS_9allocatorIwEEE27__invalidate_iterators_pastEm", scope: !204, file: !205, line: 1441, type: !810, isLocal: false, isDefinition: false, scopeLine: 1441, flags: DIFlagPrototyped, isOptimized: false)
!1093 = !{!662, !663, !1094}
!1094 = !DITemplateTypeParameter(name: "_Allocator", type: !233)
!1095 = !DIDerivedType(tag: DW_TAG_member, name: "str_v_", scope: !17, file: !4, line: 72, baseType: !97, size: 64)
!1096 = !DIDerivedType(tag: DW_TAG_member, name: "reg_v_", scope: !17, file: !4, line: 73, baseType: !1097, size: 320)
!1097 = distinct !DICompositeType(tag: DW_TAG_class_type, name: "ACLexRegex", scope: !6, file: !1098, line: 95, size: 320, elements: !1099, vtableHolder: !1097, identifier: "_ZTSN14altered_carbon2js10ACLexRegexE")
!1098 = !DIFile(filename: "./../ac_lex_datatypes.h", directory: "/Users/ejiang/Projects/lls/ac/asserts")
!1099 = !{!1100, !1101, !1929, !1930, !1931, !1932, !1936, !1941, !1944}
!1100 = !DIDerivedType(tag: DW_TAG_member, name: "_vptr$ACLexRegex", scope: !1098, file: !1098, baseType: !10, size: 64, flags: DIFlagArtificial)
!1101 = !DIDerivedType(tag: DW_TAG_member, name: "pattern_", scope: !1097, file: !1098, line: 97, baseType: !1102, size: 192, offset: 64, flags: DIFlagPublic)
!1102 = !DIDerivedType(tag: DW_TAG_typedef, name: "string", scope: !23, file: !203, line: 194, baseType: !1103)
!1103 = distinct !DICompositeType(tag: DW_TAG_class_type, name: "basic_string<char, std::__1::char_traits<char>, std::__1::allocator<char> >", scope: !23, file: !205, line: 4002, size: 192, elements: !1104, templateParams: !1927, identifier: "_ZTSNSt3__112basic_stringIcNS_11char_traitsIcEENS_9allocatorIcEEEE")
!1104 = !{!1105, !1106, !1218, !1219, !1319, !1320, !1324, !1330, !1335, !1338, !1342, !1345, !1348, !1351, !1354, !1357, !1360, !1363, !1366, !1369, !1552, !1555, !1580, !1583, !1584, !1588, !1592, !1595, !1598, !1603, !1606, !1611, !1616, !1617, !1618, !1623, !1628, !1629, !1630, !1631, !1632, !1633, !1634, !1637, !1638, !1639, !1640, !1643, !1646, !1647, !1648, !1649, !1652, !1657, !1662, !1663, !1664, !1665, !1668, !1669, !1670, !1671, !1672, !1673, !1676, !1679, !1680, !1683, !1684, !1687, !1688, !1691, !1694, !1695, !1696, !1697, !1698, !1699, !1700, !1701, !1702, !1703, !1704, !1707, !1710, !1713, !1716, !1719, !1722, !1725, !1728, !1731, !1734, !1737, !1740, !1743, !1746, !1749, !1752, !1755, !1758, !1761, !1764, !1767, !1770, !1773, !1776, !1780, !1783, !1786, !1789, !1790, !1793, !1796, !1799, !1802, !1805, !1808, !1809, !1810, !1811, !1812, !1813, !1814, !1815, !1816, !1817, !1818, !1819, !1820, !1821, !1822, !1823, !1824, !1825, !1826, !1827, !1828, !1829, !1830, !1831, !1832, !1833, !1836, !1839, !1842, !1845, !1848, !1851, !1854, !1857, !1858, !1859, !1863, !1866, !1867, !1868, !1869, !1870, !1871, !1872, !1873, !1876, !1879, !1887, !1888, !1889, !1890, !1891, !1892, !1895, !1898, !1901, !1902, !1905, !1908, !1909, !1910, !1913, !1916, !1919, !1922, !1923, !1924, !1925, !1926}
!1105 = !DIDerivedType(tag: DW_TAG_inheritance, scope: !1103, baseType: !208)
!1106 = !DIDerivedType(tag: DW_TAG_member, name: "__short_mask", scope: !1103, file: !205, line: 707, baseType: !1107, flags: DIFlagStaticMember, extraData: i64 1)
!1107 = !DIDerivedType(tag: DW_TAG_const_type, baseType: !1108)
!1108 = !DIDerivedType(tag: DW_TAG_typedef, name: "size_type", scope: !1103, file: !205, line: 640, baseType: !1109)
!1109 = !DIDerivedType(tag: DW_TAG_typedef, name: "size_type", scope: !1110, file: !22, line: 1478, baseType: !1214)
!1110 = distinct !DICompositeType(tag: DW_TAG_structure_type, name: "allocator_traits<std::__1::allocator<char> >", scope: !23, file: !22, line: 1467, size: 8, elements: !1111, templateParams: !1213, identifier: "_ZTSNSt3__116allocator_traitsINS_9allocatorIcEEEE")
!1111 = !{!1112, !1160, !1184, !1187, !1192, !1195, !1198, !1201, !1204, !1207, !1210}
!1112 = !DISubprogram(name: "allocate", linkageName: "_ZNSt3__116allocator_traitsINS_9allocatorIcEEE8allocateERS2_m", scope: !1110, file: !22, line: 1501, type: !1113, isLocal: false, isDefinition: false, scopeLine: 1501, flags: DIFlagPrototyped, isOptimized: false)
!1113 = !DISubroutineType(types: !1114)
!1114 = !{!1115, !1158, !1109}
!1115 = !DIDerivedType(tag: DW_TAG_typedef, name: "pointer", scope: !1110, file: !22, line: 1472, baseType: !1116)
!1116 = !DIDerivedType(tag: DW_TAG_typedef, name: "type", scope: !1117, file: !22, line: 1020, baseType: !1155)
!1117 = distinct !DICompositeType(tag: DW_TAG_structure_type, name: "__pointer_type<char, std::__1::allocator<char> >", scope: !23, file: !22, line: 1018, size: 8, elements: !171, templateParams: !1118, identifier: "_ZTSNSt3__114__pointer_typeIcNS_9allocatorIcEEEE")
!1118 = !{!1119, !1120}
!1119 = !DITemplateTypeParameter(name: "_Tp", type: !99)
!1120 = !DITemplateTypeParameter(name: "_Dp", type: !1121)
!1121 = distinct !DICompositeType(tag: DW_TAG_class_type, name: "allocator<char>", scope: !23, file: !22, line: 1720, size: 8, elements: !1122, templateParams: !1154, identifier: "_ZTSNSt3__19allocatorIcEE")
!1122 = !{!1123, !1127, !1136, !1142, !1145, !1148, !1151}
!1123 = !DISubprogram(name: "allocator", scope: !1121, file: !22, line: 1736, type: !1124, isLocal: false, isDefinition: false, scopeLine: 1736, flags: DIFlagPublic | DIFlagPrototyped, isOptimized: false)
!1124 = !DISubroutineType(types: !1125)
!1125 = !{null, !1126}
!1126 = !DIDerivedType(tag: DW_TAG_pointer_type, baseType: !1121, size: 64, flags: DIFlagArtificial | DIFlagObjectPointer)
!1127 = !DISubprogram(name: "address", linkageName: "_ZNKSt3__19allocatorIcE7addressERc", scope: !1121, file: !22, line: 1738, type: !1128, isLocal: false, isDefinition: false, scopeLine: 1738, flags: DIFlagPublic | DIFlagPrototyped, isOptimized: false)
!1128 = !DISubroutineType(types: !1129)
!1129 = !{!1130, !1132, !1134}
!1130 = !DIDerivedType(tag: DW_TAG_typedef, name: "pointer", scope: !1121, file: !22, line: 1725, baseType: !1131)
!1131 = !DIDerivedType(tag: DW_TAG_pointer_type, baseType: !99, size: 64)
!1132 = !DIDerivedType(tag: DW_TAG_pointer_type, baseType: !1133, size: 64, flags: DIFlagArtificial | DIFlagObjectPointer)
!1133 = !DIDerivedType(tag: DW_TAG_const_type, baseType: !1121)
!1134 = !DIDerivedType(tag: DW_TAG_typedef, name: "reference", scope: !1121, file: !22, line: 1727, baseType: !1135)
!1135 = !DIDerivedType(tag: DW_TAG_reference_type, baseType: !99, size: 64)
!1136 = !DISubprogram(name: "address", linkageName: "_ZNKSt3__19allocatorIcE7addressERKc", scope: !1121, file: !22, line: 1740, type: !1137, isLocal: false, isDefinition: false, scopeLine: 1740, flags: DIFlagPublic | DIFlagPrototyped, isOptimized: false)
!1137 = !DISubroutineType(types: !1138)
!1138 = !{!1139, !1132, !1140}
!1139 = !DIDerivedType(tag: DW_TAG_typedef, name: "const_pointer", scope: !1121, file: !22, line: 1726, baseType: !97)
!1140 = !DIDerivedType(tag: DW_TAG_typedef, name: "const_reference", scope: !1121, file: !22, line: 1728, baseType: !1141)
!1141 = !DIDerivedType(tag: DW_TAG_reference_type, baseType: !98, size: 64)
!1142 = !DISubprogram(name: "allocate", linkageName: "_ZNSt3__19allocatorIcE8allocateEmPKv", scope: !1121, file: !22, line: 1742, type: !1143, isLocal: false, isDefinition: false, scopeLine: 1742, flags: DIFlagPublic | DIFlagPrototyped, isOptimized: false)
!1143 = !DISubroutineType(types: !1144)
!1144 = !{!1130, !1126, !259, !260}
!1145 = !DISubprogram(name: "deallocate", linkageName: "_ZNSt3__19allocatorIcE10deallocateEPcm", scope: !1121, file: !22, line: 1749, type: !1146, isLocal: false, isDefinition: false, scopeLine: 1749, flags: DIFlagPublic | DIFlagPrototyped, isOptimized: false)
!1146 = !DISubroutineType(types: !1147)
!1147 = !{null, !1126, !1130, !259}
!1148 = !DISubprogram(name: "max_size", linkageName: "_ZNKSt3__19allocatorIcE8max_sizeEv", scope: !1121, file: !22, line: 1751, type: !1149, isLocal: false, isDefinition: false, scopeLine: 1751, flags: DIFlagPublic | DIFlagPrototyped, isOptimized: false)
!1149 = !DISubroutineType(types: !1150)
!1150 = !{!259, !1132}
!1151 = !DISubprogram(name: "destroy", linkageName: "_ZNSt3__19allocatorIcE7destroyEPc", scope: !1121, file: !22, line: 1814, type: !1152, isLocal: false, isDefinition: false, scopeLine: 1814, flags: DIFlagPublic | DIFlagPrototyped, isOptimized: false)
!1152 = !DISubroutineType(types: !1153)
!1153 = !{null, !1126, !1130}
!1154 = !{!1119}
!1155 = !DIDerivedType(tag: DW_TAG_typedef, name: "type", scope: !1156, file: !22, line: 1006, baseType: !1130)
!1156 = distinct !DICompositeType(tag: DW_TAG_structure_type, name: "__pointer_type<char, std::__1::allocator<char>, true>", scope: !276, file: !22, line: 1004, size: 8, elements: !171, templateParams: !1157, identifier: "_ZTSNSt3__118__pointer_type_imp14__pointer_typeIcNS_9allocatorIcEELb1EEE")
!1157 = !{!1119, !1120, !177}
!1158 = !DIDerivedType(tag: DW_TAG_reference_type, baseType: !1159, size: 64)
!1159 = !DIDerivedType(tag: DW_TAG_typedef, name: "allocator_type", scope: !1110, file: !22, line: 1469, baseType: !1121)
!1160 = !DISubprogram(name: "allocate", linkageName: "_ZNSt3__116allocator_traitsINS_9allocatorIcEEE8allocateERS2_mPKv", scope: !1110, file: !22, line: 1504, type: !1161, isLocal: false, isDefinition: false, scopeLine: 1504, flags: DIFlagPrototyped, isOptimized: false)
!1161 = !DISubroutineType(types: !1162)
!1162 = !{!1115, !1158, !1109, !1163}
!1163 = !DIDerivedType(tag: DW_TAG_typedef, name: "const_void_pointer", scope: !1110, file: !22, line: 1475, baseType: !1164)
!1164 = !DIDerivedType(tag: DW_TAG_typedef, name: "type", scope: !1165, file: !22, line: 1086, baseType: !1169)
!1165 = distinct !DICompositeType(tag: DW_TAG_structure_type, name: "__const_void_pointer<char *, std::__1::allocator<char>, false>", scope: !23, file: !22, line: 1083, size: 8, elements: !171, templateParams: !1166, identifier: "_ZTSNSt3__120__const_void_pointerIPcNS_9allocatorIcEELb0EEE")
!1166 = !{!1167, !1168, !289}
!1167 = !DITemplateTypeParameter(name: "_Ptr", type: !1131)
!1168 = !DITemplateTypeParameter(name: "_Alloc", type: !1121)
!1169 = !DIDerivedType(tag: DW_TAG_typedef, name: "rebind<const void>", scope: !1170, file: !22, line: 968, baseType: !88)
!1170 = distinct !DICompositeType(tag: DW_TAG_structure_type, name: "pointer_traits<char *>", scope: !23, file: !22, line: 961, size: 8, elements: !1171, templateParams: !1183, identifier: "_ZTSNSt3__114pointer_traitsIPcEE")
!1171 = !{!1172}
!1172 = !DISubprogram(name: "pointer_to", linkageName: "_ZNSt3__114pointer_traitsIPcE10pointer_toERc", scope: !1170, file: !22, line: 977, type: !1173, isLocal: false, isDefinition: false, scopeLine: 977, flags: DIFlagPrototyped, isOptimized: false)
!1173 = !DISubroutineType(types: !1174)
!1174 = !{!1175, !1176}
!1175 = !DIDerivedType(tag: DW_TAG_typedef, name: "pointer", scope: !1170, file: !22, line: 963, baseType: !1131)
!1176 = !DIDerivedType(tag: DW_TAG_reference_type, baseType: !1177, size: 64)
!1177 = !DIDerivedType(tag: DW_TAG_typedef, name: "type", scope: !1178, file: !169, line: 414, baseType: !99)
!1178 = distinct !DICompositeType(tag: DW_TAG_structure_type, name: "conditional<false, std::__1::pointer_traits<char *>::__nat, char>", scope: !23, file: !169, line: 414, size: 8, elements: !171, templateParams: !1179, identifier: "_ZTSNSt3__111conditionalILb0ENS_14pointer_traitsIPcE5__natEcEE")
!1179 = !{!301, !1180, !1182}
!1180 = !DITemplateTypeParameter(name: "_If", type: !1181)
!1181 = !DICompositeType(tag: DW_TAG_structure_type, name: "__nat", scope: !1170, file: !22, line: 974, flags: DIFlagFwdDecl, identifier: "_ZTSNSt3__114pointer_traitsIPcE5__natE")
!1182 = !DITemplateTypeParameter(name: "_Then", type: !99)
!1183 = !{!1167}
!1184 = !DISubprogram(name: "deallocate", linkageName: "_ZNSt3__116allocator_traitsINS_9allocatorIcEEE10deallocateERS2_Pcm", scope: !1110, file: !22, line: 1509, type: !1185, isLocal: false, isDefinition: false, scopeLine: 1509, flags: DIFlagPrototyped, isOptimized: false)
!1185 = !DISubroutineType(types: !1186)
!1186 = !{null, !1158, !1115, !1109}
!1187 = !DISubprogram(name: "max_size", linkageName: "_ZNSt3__116allocator_traitsINS_9allocatorIcEEE8max_sizeERKS2_", scope: !1110, file: !22, line: 1553, type: !1188, isLocal: false, isDefinition: false, scopeLine: 1553, flags: DIFlagPrototyped, isOptimized: false)
!1188 = !DISubroutineType(types: !1189)
!1189 = !{!1109, !1190}
!1190 = !DIDerivedType(tag: DW_TAG_reference_type, baseType: !1191, size: 64)
!1191 = !DIDerivedType(tag: DW_TAG_const_type, baseType: !1159)
!1192 = !DISubprogram(name: "select_on_container_copy_construction", linkageName: "_ZNSt3__116allocator_traitsINS_9allocatorIcEEE37select_on_container_copy_constructionERKS2_", scope: !1110, file: !22, line: 1558, type: !1193, isLocal: false, isDefinition: false, scopeLine: 1558, flags: DIFlagPrototyped, isOptimized: false)
!1193 = !DISubroutineType(types: !1194)
!1194 = !{!1159, !1190}
!1195 = !DISubprogram(name: "__allocate", linkageName: "_ZNSt3__116allocator_traitsINS_9allocatorIcEEE10__allocateERS2_mPKvNS_17integral_constantIbLb1EEE", scope: !1110, file: !22, line: 1658, type: !1196, isLocal: false, isDefinition: false, scopeLine: 1658, flags: DIFlagPrivate | DIFlagPrototyped, isOptimized: false)
!1196 = !DISubroutineType(types: !1197)
!1197 = !{!1115, !1158, !1109, !1163, !320}
!1198 = !DISubprogram(name: "__allocate", linkageName: "_ZNSt3__116allocator_traitsINS_9allocatorIcEEE10__allocateERS2_mPKvNS_17integral_constantIbLb0EEE", scope: !1110, file: !22, line: 1662, type: !1199, isLocal: false, isDefinition: false, scopeLine: 1662, flags: DIFlagPrivate | DIFlagPrototyped, isOptimized: false)
!1199 = !DISubroutineType(types: !1200)
!1200 = !{!1115, !1158, !1109, !1163, !337}
!1201 = !DISubprogram(name: "__max_size", linkageName: "_ZNSt3__116allocator_traitsINS_9allocatorIcEEE10__max_sizeENS_17integral_constantIbLb1EEERKS2_", scope: !1110, file: !22, line: 1691, type: !1202, isLocal: false, isDefinition: false, scopeLine: 1691, flags: DIFlagPrivate | DIFlagPrototyped, isOptimized: false)
!1202 = !DISubroutineType(types: !1203)
!1203 = !{!1109, !320, !1190}
!1204 = !DISubprogram(name: "__max_size", linkageName: "_ZNSt3__116allocator_traitsINS_9allocatorIcEEE10__max_sizeENS_17integral_constantIbLb0EEERKS2_", scope: !1110, file: !22, line: 1694, type: !1205, isLocal: false, isDefinition: false, scopeLine: 1694, flags: DIFlagPrivate | DIFlagPrototyped, isOptimized: false)
!1205 = !DISubroutineType(types: !1206)
!1206 = !{!1109, !337, !1190}
!1207 = !DISubprogram(name: "__select_on_container_copy_construction", linkageName: "_ZNSt3__116allocator_traitsINS_9allocatorIcEEE39__select_on_container_copy_constructionENS_17integral_constantIbLb1EEERKS2_", scope: !1110, file: !22, line: 1699, type: !1208, isLocal: false, isDefinition: false, scopeLine: 1699, flags: DIFlagPrivate | DIFlagPrototyped, isOptimized: false)
!1208 = !DISubroutineType(types: !1209)
!1209 = !{!1159, !320, !1190}
!1210 = !DISubprogram(name: "__select_on_container_copy_construction", linkageName: "_ZNSt3__116allocator_traitsINS_9allocatorIcEEE39__select_on_container_copy_constructionENS_17integral_constantIbLb0EEERKS2_", scope: !1110, file: !22, line: 1703, type: !1211, isLocal: false, isDefinition: false, scopeLine: 1703, flags: DIFlagPrivate | DIFlagPrototyped, isOptimized: false)
!1211 = !DISubroutineType(types: !1212)
!1212 = !{!1159, !337, !1190}
!1213 = !{!1168}
!1214 = !DIDerivedType(tag: DW_TAG_typedef, name: "type", scope: !1215, file: !22, line: 1124, baseType: !1217)
!1215 = distinct !DICompositeType(tag: DW_TAG_structure_type, name: "__size_type<std::__1::allocator<char>, long, true>", scope: !23, file: !22, line: 1122, size: 8, elements: !171, templateParams: !1216, identifier: "_ZTSNSt3__111__size_typeINS_9allocatorIcEElLb1EEE")
!1216 = !{!1168, !365, !177}
!1217 = !DIDerivedType(tag: DW_TAG_typedef, name: "size_type", scope: !1121, file: !22, line: 1723, baseType: !124)
!1218 = !DIDerivedType(tag: DW_TAG_member, name: "__long_mask", scope: !1103, file: !205, line: 708, baseType: !1107, flags: DIFlagStaticMember, extraData: i64 1)
!1219 = !DIDerivedType(tag: DW_TAG_member, name: "__r_", scope: !1103, file: !205, line: 745, baseType: !1220, size: 192)
!1220 = distinct !DICompositeType(tag: DW_TAG_class_type, name: "__compressed_pair<std::__1::basic_string<char, std::__1::char_traits<char>, std::__1::allocator<char> >::__rep, std::__1::allocator<char> >", scope: !23, file: !22, line: 2111, size: 192, elements: !1221, templateParams: !1316, identifier: "_ZTSNSt3__117__compressed_pairINS_12basic_stringIcNS_11char_traitsIcEENS_9allocatorIcEEE5__repES5_EE")
!1221 = !{!1222, !1275, !1297, !1301, !1306, !1309, !1312}
!1222 = !DIDerivedType(tag: DW_TAG_inheritance, scope: !1220, baseType: !1223)
!1223 = distinct !DICompositeType(tag: DW_TAG_structure_type, name: "__compressed_pair_elem<std::__1::basic_string<char, std::__1::char_traits<char>, std::__1::allocator<char> >::__rep, 0, false>", scope: !23, file: !22, line: 2037, size: 192, elements: !1224, templateParams: !1273, identifier: "_ZTSNSt3__122__compressed_pair_elemINS_12basic_stringIcNS_11char_traitsIcEENS_9allocatorIcEEE5__repELi0ELb0EEE")
!1224 = !{!1225, !1256, !1260, !1265}
!1225 = !DIDerivedType(tag: DW_TAG_member, name: "__value_", scope: !1223, file: !22, line: 2069, baseType: !1226, size: 192, flags: DIFlagPrivate)
!1226 = distinct !DICompositeType(tag: DW_TAG_structure_type, name: "__rep", scope: !1103, file: !205, line: 735, size: 192, elements: !1227, identifier: "_ZTSNSt3__112basic_stringIcNS_11char_traitsIcEENS_9allocatorIcEEE5__repE")
!1227 = !{!1228}
!1228 = !DIDerivedType(tag: DW_TAG_member, scope: !1226, file: !205, line: 737, baseType: !1229, size: 192)
!1229 = distinct !DICompositeType(tag: DW_TAG_union_type, scope: !1226, file: !205, line: 737, size: 192, elements: !1230, identifier: "_ZTSNSt3__112basic_stringIcNS_11char_traitsIcEENS_9allocatorIcEEE5__repUt_E")
!1230 = !{!1231, !1238, !1251}
!1231 = !DIDerivedType(tag: DW_TAG_member, name: "__l", scope: !1229, file: !205, line: 739, baseType: !1232, size: 192)
!1232 = distinct !DICompositeType(tag: DW_TAG_structure_type, name: "__long", scope: !1103, file: !205, line: 696, size: 192, elements: !1233, identifier: "_ZTSNSt3__112basic_stringIcNS_11char_traitsIcEENS_9allocatorIcEEE6__longE")
!1233 = !{!1234, !1235, !1236}
!1234 = !DIDerivedType(tag: DW_TAG_member, name: "__cap_", scope: !1232, file: !205, line: 698, baseType: !1108, size: 64)
!1235 = !DIDerivedType(tag: DW_TAG_member, name: "__size_", scope: !1232, file: !205, line: 699, baseType: !1108, size: 64, offset: 64)
!1236 = !DIDerivedType(tag: DW_TAG_member, name: "__data_", scope: !1232, file: !205, line: 700, baseType: !1237, size: 64, offset: 128)
!1237 = !DIDerivedType(tag: DW_TAG_typedef, name: "pointer", scope: !1103, file: !205, line: 644, baseType: !1115)
!1238 = !DIDerivedType(tag: DW_TAG_member, name: "__s", scope: !1229, file: !205, line: 740, baseType: !1239, size: 192)
!1239 = distinct !DICompositeType(tag: DW_TAG_structure_type, name: "__short", scope: !1103, file: !205, line: 714, size: 192, elements: !1240, identifier: "_ZTSNSt3__112basic_stringIcNS_11char_traitsIcEENS_9allocatorIcEEE7__shortE")
!1240 = !{!1241, !1247}
!1241 = !DIDerivedType(tag: DW_TAG_member, scope: !1239, file: !205, line: 716, baseType: !1242, size: 8)
!1242 = distinct !DICompositeType(tag: DW_TAG_union_type, scope: !1239, file: !205, line: 716, size: 8, elements: !1243, identifier: "_ZTSNSt3__112basic_stringIcNS_11char_traitsIcEENS_9allocatorIcEEE7__shortUt_E")
!1243 = !{!1244, !1245}
!1244 = !DIDerivedType(tag: DW_TAG_member, name: "__size_", scope: !1242, file: !205, line: 718, baseType: !394, size: 8)
!1245 = !DIDerivedType(tag: DW_TAG_member, name: "__lx", scope: !1242, file: !205, line: 719, baseType: !1246, size: 8)
!1246 = !DIDerivedType(tag: DW_TAG_typedef, name: "value_type", scope: !1103, file: !205, line: 637, baseType: !99)
!1247 = !DIDerivedType(tag: DW_TAG_member, name: "__data_", scope: !1239, file: !205, line: 721, baseType: !1248, size: 184, offset: 8)
!1248 = !DICompositeType(tag: DW_TAG_array_type, baseType: !1246, size: 184, elements: !1249)
!1249 = !{!1250}
!1250 = !DISubrange(count: 23)
!1251 = !DIDerivedType(tag: DW_TAG_member, name: "__r", scope: !1229, file: !205, line: 741, baseType: !1252, size: 192)
!1252 = distinct !DICompositeType(tag: DW_TAG_structure_type, name: "__raw", scope: !1103, file: !205, line: 730, size: 192, elements: !1253, identifier: "_ZTSNSt3__112basic_stringIcNS_11char_traitsIcEENS_9allocatorIcEEE5__rawE")
!1253 = !{!1254}
!1254 = !DIDerivedType(tag: DW_TAG_member, name: "__words", scope: !1252, file: !205, line: 732, baseType: !1255, size: 192)
!1255 = !DICompositeType(tag: DW_TAG_array_type, baseType: !1108, size: 192, elements: !406)
!1256 = !DISubprogram(name: "__compressed_pair_elem", scope: !1223, file: !22, line: 2043, type: !1257, isLocal: false, isDefinition: false, scopeLine: 2043, flags: DIFlagPrototyped, isOptimized: false)
!1257 = !DISubroutineType(types: !1258)
!1258 = !{null, !1259}
!1259 = !DIDerivedType(tag: DW_TAG_pointer_type, baseType: !1223, size: 64, flags: DIFlagArtificial | DIFlagObjectPointer)
!1260 = !DISubprogram(name: "__get", linkageName: "_ZNSt3__122__compressed_pair_elemINS_12basic_stringIcNS_11char_traitsIcEENS_9allocatorIcEEE5__repELi0ELb0EE5__getEv", scope: !1223, file: !22, line: 2064, type: !1261, isLocal: false, isDefinition: false, scopeLine: 2064, flags: DIFlagPrototyped, isOptimized: false)
!1261 = !DISubroutineType(types: !1262)
!1262 = !{!1263, !1259}
!1263 = !DIDerivedType(tag: DW_TAG_typedef, name: "reference", scope: !1223, file: !22, line: 2039, baseType: !1264)
!1264 = !DIDerivedType(tag: DW_TAG_reference_type, baseType: !1226, size: 64)
!1265 = !DISubprogram(name: "__get", linkageName: "_ZNKSt3__122__compressed_pair_elemINS_12basic_stringIcNS_11char_traitsIcEENS_9allocatorIcEEE5__repELi0ELb0EE5__getEv", scope: !1223, file: !22, line: 2066, type: !1266, isLocal: false, isDefinition: false, scopeLine: 2066, flags: DIFlagPrototyped, isOptimized: false)
!1266 = !DISubroutineType(types: !1267)
!1267 = !{!1268, !1271}
!1268 = !DIDerivedType(tag: DW_TAG_typedef, name: "const_reference", scope: !1223, file: !22, line: 2040, baseType: !1269)
!1269 = !DIDerivedType(tag: DW_TAG_reference_type, baseType: !1270, size: 64)
!1270 = !DIDerivedType(tag: DW_TAG_const_type, baseType: !1226)
!1271 = !DIDerivedType(tag: DW_TAG_pointer_type, baseType: !1272, size: 64, flags: DIFlagArtificial | DIFlagObjectPointer)
!1272 = !DIDerivedType(tag: DW_TAG_const_type, baseType: !1223)
!1273 = !{!1274, !427, !428}
!1274 = !DITemplateTypeParameter(name: "_Tp", type: !1226)
!1275 = !DIDerivedType(tag: DW_TAG_inheritance, scope: !1220, baseType: !1276)
!1276 = distinct !DICompositeType(tag: DW_TAG_structure_type, name: "__compressed_pair_elem<std::__1::allocator<char>, 1, true>", scope: !23, file: !22, line: 2073, size: 8, elements: !1277, templateParams: !1295, identifier: "_ZTSNSt3__122__compressed_pair_elemINS_9allocatorIcEELi1ELb1EEE")
!1277 = !{!1278, !1279, !1283, !1288}
!1278 = !DIDerivedType(tag: DW_TAG_inheritance, scope: !1276, baseType: !1121, flags: DIFlagPrivate)
!1279 = !DISubprogram(name: "__compressed_pair_elem", scope: !1276, file: !22, line: 2080, type: !1280, isLocal: false, isDefinition: false, scopeLine: 2080, flags: DIFlagPrototyped, isOptimized: false)
!1280 = !DISubroutineType(types: !1281)
!1281 = !{null, !1282}
!1282 = !DIDerivedType(tag: DW_TAG_pointer_type, baseType: !1276, size: 64, flags: DIFlagArtificial | DIFlagObjectPointer)
!1283 = !DISubprogram(name: "__get", linkageName: "_ZNSt3__122__compressed_pair_elemINS_9allocatorIcEELi1ELb1EE5__getEv", scope: !1276, file: !22, line: 2102, type: !1284, isLocal: false, isDefinition: false, scopeLine: 2102, flags: DIFlagPrototyped, isOptimized: false)
!1284 = !DISubroutineType(types: !1285)
!1285 = !{!1286, !1282}
!1286 = !DIDerivedType(tag: DW_TAG_typedef, name: "reference", scope: !1276, file: !22, line: 2075, baseType: !1287)
!1287 = !DIDerivedType(tag: DW_TAG_reference_type, baseType: !1121, size: 64)
!1288 = !DISubprogram(name: "__get", linkageName: "_ZNKSt3__122__compressed_pair_elemINS_9allocatorIcEELi1ELb1EE5__getEv", scope: !1276, file: !22, line: 2104, type: !1289, isLocal: false, isDefinition: false, scopeLine: 2104, flags: DIFlagPrototyped, isOptimized: false)
!1289 = !DISubroutineType(types: !1290)
!1290 = !{!1291, !1293}
!1291 = !DIDerivedType(tag: DW_TAG_typedef, name: "const_reference", scope: !1276, file: !22, line: 2076, baseType: !1292)
!1292 = !DIDerivedType(tag: DW_TAG_reference_type, baseType: !1133, size: 64)
!1293 = !DIDerivedType(tag: DW_TAG_pointer_type, baseType: !1294, size: 64, flags: DIFlagArtificial | DIFlagObjectPointer)
!1294 = !DIDerivedType(tag: DW_TAG_const_type, baseType: !1276)
!1295 = !{!1296, !451, !452}
!1296 = !DITemplateTypeParameter(name: "_Tp", type: !1121)
!1297 = !DISubprogram(name: "first", linkageName: "_ZNSt3__117__compressed_pairINS_12basic_stringIcNS_11char_traitsIcEENS_9allocatorIcEEE5__repES5_E5firstEv", scope: !1220, file: !22, line: 2179, type: !1298, isLocal: false, isDefinition: false, scopeLine: 2179, flags: DIFlagPublic | DIFlagPrototyped, isOptimized: false)
!1298 = !DISubroutineType(types: !1299)
!1299 = !{!1263, !1300}
!1300 = !DIDerivedType(tag: DW_TAG_pointer_type, baseType: !1220, size: 64, flags: DIFlagArtificial | DIFlagObjectPointer)
!1301 = !DISubprogram(name: "first", linkageName: "_ZNKSt3__117__compressed_pairINS_12basic_stringIcNS_11char_traitsIcEENS_9allocatorIcEEE5__repES5_E5firstEv", scope: !1220, file: !22, line: 2184, type: !1302, isLocal: false, isDefinition: false, scopeLine: 2184, flags: DIFlagPublic | DIFlagPrototyped, isOptimized: false)
!1302 = !DISubroutineType(types: !1303)
!1303 = !{!1268, !1304}
!1304 = !DIDerivedType(tag: DW_TAG_pointer_type, baseType: !1305, size: 64, flags: DIFlagArtificial | DIFlagObjectPointer)
!1305 = !DIDerivedType(tag: DW_TAG_const_type, baseType: !1220)
!1306 = !DISubprogram(name: "second", linkageName: "_ZNSt3__117__compressed_pairINS_12basic_stringIcNS_11char_traitsIcEENS_9allocatorIcEEE5__repES5_E6secondEv", scope: !1220, file: !22, line: 2189, type: !1307, isLocal: false, isDefinition: false, scopeLine: 2189, flags: DIFlagPublic | DIFlagPrototyped, isOptimized: false)
!1307 = !DISubroutineType(types: !1308)
!1308 = !{!1286, !1300}
!1309 = !DISubprogram(name: "second", linkageName: "_ZNKSt3__117__compressed_pairINS_12basic_stringIcNS_11char_traitsIcEENS_9allocatorIcEEE5__repES5_E6secondEv", scope: !1220, file: !22, line: 2194, type: !1310, isLocal: false, isDefinition: false, scopeLine: 2194, flags: DIFlagPublic | DIFlagPrototyped, isOptimized: false)
!1310 = !DISubroutineType(types: !1311)
!1311 = !{!1291, !1304}
!1312 = !DISubprogram(name: "swap", linkageName: "_ZNSt3__117__compressed_pairINS_12basic_stringIcNS_11char_traitsIcEENS_9allocatorIcEEE5__repES5_E4swapERS8_", scope: !1220, file: !22, line: 2199, type: !1313, isLocal: false, isDefinition: false, scopeLine: 2199, flags: DIFlagPublic | DIFlagPrototyped, isOptimized: false)
!1313 = !DISubroutineType(types: !1314)
!1314 = !{null, !1300, !1315}
!1315 = !DIDerivedType(tag: DW_TAG_reference_type, baseType: !1220, size: 64)
!1316 = !{!1317, !1318}
!1317 = !DITemplateTypeParameter(name: "_T1", type: !1226)
!1318 = !DITemplateTypeParameter(name: "_T2", type: !1121)
!1319 = !DIDerivedType(tag: DW_TAG_member, name: "npos", scope: !1103, file: !205, line: 748, baseType: !1107, flags: DIFlagPublic | DIFlagStaticMember, extraData: i64 -1)
!1320 = !DISubprogram(name: "basic_string", scope: !1103, file: !205, line: 750, type: !1321, isLocal: false, isDefinition: false, scopeLine: 750, flags: DIFlagPublic | DIFlagPrototyped, isOptimized: false)
!1321 = !DISubroutineType(types: !1322)
!1322 = !{null, !1323}
!1323 = !DIDerivedType(tag: DW_TAG_pointer_type, baseType: !1103, size: 64, flags: DIFlagArtificial | DIFlagObjectPointer)
!1324 = !DISubprogram(name: "basic_string", scope: !1103, file: !205, line: 753, type: !1325, isLocal: false, isDefinition: false, scopeLine: 753, flags: DIFlagPublic | DIFlagExplicit | DIFlagPrototyped, isOptimized: false)
!1325 = !DISubroutineType(types: !1326)
!1326 = !{null, !1323, !1327}
!1327 = !DIDerivedType(tag: DW_TAG_reference_type, baseType: !1328, size: 64)
!1328 = !DIDerivedType(tag: DW_TAG_const_type, baseType: !1329)
!1329 = !DIDerivedType(tag: DW_TAG_typedef, name: "allocator_type", scope: !1103, file: !205, line: 638, baseType: !1121)
!1330 = !DISubprogram(name: "basic_string", scope: !1103, file: !205, line: 760, type: !1331, isLocal: false, isDefinition: false, scopeLine: 760, flags: DIFlagPublic | DIFlagPrototyped, isOptimized: false)
!1331 = !DISubroutineType(types: !1332)
!1332 = !{null, !1323, !1333}
!1333 = !DIDerivedType(tag: DW_TAG_reference_type, baseType: !1334, size: 64)
!1334 = !DIDerivedType(tag: DW_TAG_const_type, baseType: !1103)
!1335 = !DISubprogram(name: "basic_string", scope: !1103, file: !205, line: 761, type: !1336, isLocal: false, isDefinition: false, scopeLine: 761, flags: DIFlagPublic | DIFlagPrototyped, isOptimized: false)
!1336 = !DISubroutineType(types: !1337)
!1337 = !{null, !1323, !1333, !1327}
!1338 = !DISubprogram(name: "basic_string", scope: !1103, file: !205, line: 765, type: !1339, isLocal: false, isDefinition: false, scopeLine: 765, flags: DIFlagPublic | DIFlagPrototyped, isOptimized: false)
!1339 = !DISubroutineType(types: !1340)
!1340 = !{null, !1323, !1341}
!1341 = !DIDerivedType(tag: DW_TAG_rvalue_reference_type, baseType: !1103, size: 64)
!1342 = !DISubprogram(name: "basic_string", scope: !1103, file: !205, line: 773, type: !1343, isLocal: false, isDefinition: false, scopeLine: 773, flags: DIFlagPublic | DIFlagPrototyped, isOptimized: false)
!1343 = !DISubroutineType(types: !1344)
!1344 = !{null, !1323, !1341, !1327}
!1345 = !DISubprogram(name: "basic_string", scope: !1103, file: !205, line: 775, type: !1346, isLocal: false, isDefinition: false, scopeLine: 775, flags: DIFlagPublic | DIFlagPrototyped, isOptimized: false)
!1346 = !DISubroutineType(types: !1347)
!1347 = !{null, !1323, !97}
!1348 = !DISubprogram(name: "basic_string", scope: !1103, file: !205, line: 777, type: !1349, isLocal: false, isDefinition: false, scopeLine: 777, flags: DIFlagPublic | DIFlagPrototyped, isOptimized: false)
!1349 = !DISubroutineType(types: !1350)
!1350 = !{null, !1323, !97, !1292}
!1351 = !DISubprogram(name: "basic_string", scope: !1103, file: !205, line: 779, type: !1352, isLocal: false, isDefinition: false, scopeLine: 779, flags: DIFlagPublic | DIFlagPrototyped, isOptimized: false)
!1352 = !DISubroutineType(types: !1353)
!1353 = !{null, !1323, !97, !1108}
!1354 = !DISubprogram(name: "basic_string", scope: !1103, file: !205, line: 781, type: !1355, isLocal: false, isDefinition: false, scopeLine: 781, flags: DIFlagPublic | DIFlagPrototyped, isOptimized: false)
!1355 = !DISubroutineType(types: !1356)
!1356 = !{null, !1323, !97, !1108, !1292}
!1357 = !DISubprogram(name: "basic_string", scope: !1103, file: !205, line: 783, type: !1358, isLocal: false, isDefinition: false, scopeLine: 783, flags: DIFlagPublic | DIFlagPrototyped, isOptimized: false)
!1358 = !DISubroutineType(types: !1359)
!1359 = !{null, !1323, !1108, !99}
!1360 = !DISubprogram(name: "basic_string", scope: !1103, file: !205, line: 785, type: !1361, isLocal: false, isDefinition: false, scopeLine: 785, flags: DIFlagPublic | DIFlagPrototyped, isOptimized: false)
!1361 = !DISubroutineType(types: !1362)
!1362 = !{null, !1323, !1108, !99, !1292}
!1363 = !DISubprogram(name: "basic_string", scope: !1103, file: !205, line: 786, type: !1364, isLocal: false, isDefinition: false, scopeLine: 786, flags: DIFlagPublic | DIFlagPrototyped, isOptimized: false)
!1364 = !DISubroutineType(types: !1365)
!1365 = !{null, !1323, !1333, !1108, !1108, !1292}
!1366 = !DISubprogram(name: "basic_string", scope: !1103, file: !205, line: 789, type: !1367, isLocal: false, isDefinition: false, scopeLine: 789, flags: DIFlagPublic | DIFlagPrototyped, isOptimized: false)
!1367 = !DISubroutineType(types: !1368)
!1368 = !{null, !1323, !1333, !1108, !1292}
!1369 = !DISubprogram(name: "basic_string", scope: !1103, file: !205, line: 797, type: !1370, isLocal: false, isDefinition: false, scopeLine: 797, flags: DIFlagPublic | DIFlagExplicit | DIFlagPrototyped, isOptimized: false)
!1370 = !DISubroutineType(types: !1371)
!1371 = !{null, !1323, !1372}
!1372 = !DIDerivedType(tag: DW_TAG_typedef, name: "__self_view", scope: !1103, file: !205, line: 635, baseType: !1373)
!1373 = distinct !DICompositeType(tag: DW_TAG_class_type, name: "basic_string_view<char, std::__1::char_traits<char> >", scope: !23, file: !530, line: 187, size: 128, elements: !1374, templateParams: !1501, identifier: "_ZTSNSt3__117basic_string_viewIcNS_11char_traitsIcEEEE")
!1374 = !{!1375, !1376, !1380, !1381, !1385, !1390, !1394, !1397, !1400, !1406, !1407, !1408, !1409, !1414, !1415, !1416, !1417, !1420, !1421, !1422, !1425, !1429, !1430, !1433, !1434, !1437, !1440, !1441, !1444, !1448, !1451, !1454, !1457, !1460, !1463, !1466, !1469, !1472, !1475, !1478, !1481, !1482, !1483, !1484, !1485, !1486, !1487, !1488, !1489, !1490, !1491, !1492, !1493, !1494, !1495, !1496, !1497, !1498, !1499, !1500}
!1375 = !DIDerivedType(tag: DW_TAG_member, name: "npos", scope: !1373, file: !530, line: 202, baseType: !533, flags: DIFlagPublic | DIFlagStaticMember, extraData: i64 -1)
!1376 = !DIDerivedType(tag: DW_TAG_member, name: "__data", scope: !1373, file: !530, line: 569, baseType: !1377, size: 64)
!1377 = !DIDerivedType(tag: DW_TAG_pointer_type, baseType: !1378, size: 64)
!1378 = !DIDerivedType(tag: DW_TAG_const_type, baseType: !1379)
!1379 = !DIDerivedType(tag: DW_TAG_typedef, name: "value_type", scope: !1373, file: !530, line: 191, baseType: !99)
!1380 = !DIDerivedType(tag: DW_TAG_member, name: "__size", scope: !1373, file: !530, line: 570, baseType: !534, size: 64, offset: 64)
!1381 = !DISubprogram(name: "basic_string_view", scope: !1373, file: !530, line: 210, type: !1382, isLocal: false, isDefinition: false, scopeLine: 210, flags: DIFlagPublic | DIFlagPrototyped, isOptimized: false)
!1382 = !DISubroutineType(types: !1383)
!1383 = !{null, !1384}
!1384 = !DIDerivedType(tag: DW_TAG_pointer_type, baseType: !1373, size: 64, flags: DIFlagArtificial | DIFlagObjectPointer)
!1385 = !DISubprogram(name: "basic_string_view", scope: !1373, file: !530, line: 213, type: !1386, isLocal: false, isDefinition: false, scopeLine: 213, flags: DIFlagPublic | DIFlagPrototyped, isOptimized: false)
!1386 = !DISubroutineType(types: !1387)
!1387 = !{null, !1384, !1388}
!1388 = !DIDerivedType(tag: DW_TAG_reference_type, baseType: !1389, size: 64)
!1389 = !DIDerivedType(tag: DW_TAG_const_type, baseType: !1373)
!1390 = !DISubprogram(name: "operator=", linkageName: "_ZNSt3__117basic_string_viewIcNS_11char_traitsIcEEEaSERKS3_", scope: !1373, file: !530, line: 216, type: !1391, isLocal: false, isDefinition: false, scopeLine: 216, flags: DIFlagPublic | DIFlagPrototyped, isOptimized: false)
!1391 = !DISubroutineType(types: !1392)
!1392 = !{!1393, !1384, !1388}
!1393 = !DIDerivedType(tag: DW_TAG_reference_type, baseType: !1373, size: 64)
!1394 = !DISubprogram(name: "basic_string_view", scope: !1373, file: !530, line: 219, type: !1395, isLocal: false, isDefinition: false, scopeLine: 219, flags: DIFlagPublic | DIFlagPrototyped, isOptimized: false)
!1395 = !DISubroutineType(types: !1396)
!1396 = !{null, !1384, !97, !534}
!1397 = !DISubprogram(name: "basic_string_view", scope: !1373, file: !530, line: 228, type: !1398, isLocal: false, isDefinition: false, scopeLine: 228, flags: DIFlagPublic | DIFlagPrototyped, isOptimized: false)
!1398 = !DISubroutineType(types: !1399)
!1399 = !{null, !1384, !97}
!1400 = !DISubprogram(name: "begin", linkageName: "_ZNKSt3__117basic_string_viewIcNS_11char_traitsIcEEE5beginEv", scope: !1373, file: !530, line: 233, type: !1401, isLocal: false, isDefinition: false, scopeLine: 233, flags: DIFlagPublic | DIFlagPrototyped, isOptimized: false)
!1401 = !DISubroutineType(types: !1402)
!1402 = !{!1403, !1405}
!1403 = !DIDerivedType(tag: DW_TAG_typedef, name: "const_iterator", scope: !1373, file: !530, line: 196, baseType: !1404)
!1404 = !DIDerivedType(tag: DW_TAG_typedef, name: "const_pointer", scope: !1373, file: !530, line: 193, baseType: !97)
!1405 = !DIDerivedType(tag: DW_TAG_pointer_type, baseType: !1389, size: 64, flags: DIFlagArtificial | DIFlagObjectPointer)
!1406 = !DISubprogram(name: "end", linkageName: "_ZNKSt3__117basic_string_viewIcNS_11char_traitsIcEEE3endEv", scope: !1373, file: !530, line: 236, type: !1401, isLocal: false, isDefinition: false, scopeLine: 236, flags: DIFlagPublic | DIFlagPrototyped, isOptimized: false)
!1407 = !DISubprogram(name: "cbegin", linkageName: "_ZNKSt3__117basic_string_viewIcNS_11char_traitsIcEEE6cbeginEv", scope: !1373, file: !530, line: 239, type: !1401, isLocal: false, isDefinition: false, scopeLine: 239, flags: DIFlagPublic | DIFlagPrototyped, isOptimized: false)
!1408 = !DISubprogram(name: "cend", linkageName: "_ZNKSt3__117basic_string_viewIcNS_11char_traitsIcEEE4cendEv", scope: !1373, file: !530, line: 242, type: !1401, isLocal: false, isDefinition: false, scopeLine: 242, flags: DIFlagPublic | DIFlagPrototyped, isOptimized: false)
!1409 = !DISubprogram(name: "rbegin", linkageName: "_ZNKSt3__117basic_string_viewIcNS_11char_traitsIcEEE6rbeginEv", scope: !1373, file: !530, line: 245, type: !1410, isLocal: false, isDefinition: false, scopeLine: 245, flags: DIFlagPublic | DIFlagPrototyped, isOptimized: false)
!1410 = !DISubroutineType(types: !1411)
!1411 = !{!1412, !1405}
!1412 = !DIDerivedType(tag: DW_TAG_typedef, name: "const_reverse_iterator", scope: !1373, file: !530, line: 198, baseType: !1413)
!1413 = !DICompositeType(tag: DW_TAG_class_type, name: "reverse_iterator<const char *>", scope: !23, file: !573, line: 636, flags: DIFlagFwdDecl, identifier: "_ZTSNSt3__116reverse_iteratorIPKcEE")
!1414 = !DISubprogram(name: "rend", linkageName: "_ZNKSt3__117basic_string_viewIcNS_11char_traitsIcEEE4rendEv", scope: !1373, file: !530, line: 248, type: !1410, isLocal: false, isDefinition: false, scopeLine: 248, flags: DIFlagPublic | DIFlagPrototyped, isOptimized: false)
!1415 = !DISubprogram(name: "crbegin", linkageName: "_ZNKSt3__117basic_string_viewIcNS_11char_traitsIcEEE7crbeginEv", scope: !1373, file: !530, line: 251, type: !1410, isLocal: false, isDefinition: false, scopeLine: 251, flags: DIFlagPublic | DIFlagPrototyped, isOptimized: false)
!1416 = !DISubprogram(name: "crend", linkageName: "_ZNKSt3__117basic_string_viewIcNS_11char_traitsIcEEE5crendEv", scope: !1373, file: !530, line: 254, type: !1410, isLocal: false, isDefinition: false, scopeLine: 254, flags: DIFlagPublic | DIFlagPrototyped, isOptimized: false)
!1417 = !DISubprogram(name: "size", linkageName: "_ZNKSt3__117basic_string_viewIcNS_11char_traitsIcEEE4sizeEv", scope: !1373, file: !530, line: 258, type: !1418, isLocal: false, isDefinition: false, scopeLine: 258, flags: DIFlagPublic | DIFlagPrototyped, isOptimized: false)
!1418 = !DISubroutineType(types: !1419)
!1419 = !{!534, !1405}
!1420 = !DISubprogram(name: "length", linkageName: "_ZNKSt3__117basic_string_viewIcNS_11char_traitsIcEEE6lengthEv", scope: !1373, file: !530, line: 261, type: !1418, isLocal: false, isDefinition: false, scopeLine: 261, flags: DIFlagPublic | DIFlagPrototyped, isOptimized: false)
!1421 = !DISubprogram(name: "max_size", linkageName: "_ZNKSt3__117basic_string_viewIcNS_11char_traitsIcEEE8max_sizeEv", scope: !1373, file: !530, line: 264, type: !1418, isLocal: false, isDefinition: false, scopeLine: 264, flags: DIFlagPublic | DIFlagPrototyped, isOptimized: false)
!1422 = !DISubprogram(name: "empty", linkageName: "_ZNKSt3__117basic_string_viewIcNS_11char_traitsIcEEE5emptyEv", scope: !1373, file: !530, line: 267, type: !1423, isLocal: false, isDefinition: false, scopeLine: 267, flags: DIFlagPublic | DIFlagPrototyped, isOptimized: false)
!1423 = !DISubroutineType(types: !1424)
!1424 = !{!60, !1405}
!1425 = !DISubprogram(name: "operator[]", linkageName: "_ZNKSt3__117basic_string_viewIcNS_11char_traitsIcEEEixEm", scope: !1373, file: !530, line: 271, type: !1426, isLocal: false, isDefinition: false, scopeLine: 271, flags: DIFlagPublic | DIFlagPrototyped, isOptimized: false)
!1426 = !DISubroutineType(types: !1427)
!1427 = !{!1428, !1405, !534}
!1428 = !DIDerivedType(tag: DW_TAG_typedef, name: "const_reference", scope: !1373, file: !530, line: 195, baseType: !1141)
!1429 = !DISubprogram(name: "at", linkageName: "_ZNKSt3__117basic_string_viewIcNS_11char_traitsIcEEE2atEm", scope: !1373, file: !530, line: 274, type: !1426, isLocal: false, isDefinition: false, scopeLine: 274, flags: DIFlagPublic | DIFlagPrototyped, isOptimized: false)
!1430 = !DISubprogram(name: "front", linkageName: "_ZNKSt3__117basic_string_viewIcNS_11char_traitsIcEEE5frontEv", scope: !1373, file: !530, line: 282, type: !1431, isLocal: false, isDefinition: false, scopeLine: 282, flags: DIFlagPublic | DIFlagPrototyped, isOptimized: false)
!1431 = !DISubroutineType(types: !1432)
!1432 = !{!1428, !1405}
!1433 = !DISubprogram(name: "back", linkageName: "_ZNKSt3__117basic_string_viewIcNS_11char_traitsIcEEE4backEv", scope: !1373, file: !530, line: 288, type: !1431, isLocal: false, isDefinition: false, scopeLine: 288, flags: DIFlagPublic | DIFlagPrototyped, isOptimized: false)
!1434 = !DISubprogram(name: "data", linkageName: "_ZNKSt3__117basic_string_viewIcNS_11char_traitsIcEEE4dataEv", scope: !1373, file: !530, line: 294, type: !1435, isLocal: false, isDefinition: false, scopeLine: 294, flags: DIFlagPublic | DIFlagPrototyped, isOptimized: false)
!1435 = !DISubroutineType(types: !1436)
!1436 = !{!1404, !1405}
!1437 = !DISubprogram(name: "remove_prefix", linkageName: "_ZNSt3__117basic_string_viewIcNS_11char_traitsIcEEE13remove_prefixEm", scope: !1373, file: !530, line: 298, type: !1438, isLocal: false, isDefinition: false, scopeLine: 298, flags: DIFlagPublic | DIFlagPrototyped, isOptimized: false)
!1438 = !DISubroutineType(types: !1439)
!1439 = !{null, !1384, !534}
!1440 = !DISubprogram(name: "remove_suffix", linkageName: "_ZNSt3__117basic_string_viewIcNS_11char_traitsIcEEE13remove_suffixEm", scope: !1373, file: !530, line: 306, type: !1438, isLocal: false, isDefinition: false, scopeLine: 306, flags: DIFlagPublic | DIFlagPrototyped, isOptimized: false)
!1441 = !DISubprogram(name: "swap", linkageName: "_ZNSt3__117basic_string_viewIcNS_11char_traitsIcEEE4swapERS3_", scope: !1373, file: !530, line: 313, type: !1442, isLocal: false, isDefinition: false, scopeLine: 313, flags: DIFlagPublic | DIFlagPrototyped, isOptimized: false)
!1442 = !DISubroutineType(types: !1443)
!1443 = !{null, !1384, !1393}
!1444 = !DISubprogram(name: "copy", linkageName: "_ZNKSt3__117basic_string_viewIcNS_11char_traitsIcEEE4copyEPcmm", scope: !1373, file: !530, line: 325, type: !1445, isLocal: false, isDefinition: false, scopeLine: 325, flags: DIFlagPublic | DIFlagPrototyped, isOptimized: false)
!1445 = !DISubroutineType(types: !1446)
!1446 = !{!1447, !1405, !1131, !534, !534}
!1447 = !DIDerivedType(tag: DW_TAG_typedef, name: "size_type", scope: !1373, file: !530, line: 200, baseType: !124)
!1448 = !DISubprogram(name: "substr", linkageName: "_ZNKSt3__117basic_string_viewIcNS_11char_traitsIcEEE6substrEmm", scope: !1373, file: !530, line: 335, type: !1449, isLocal: false, isDefinition: false, scopeLine: 335, flags: DIFlagPublic | DIFlagPrototyped, isOptimized: false)
!1449 = !DISubroutineType(types: !1450)
!1450 = !{!1373, !1405, !534, !534}
!1451 = !DISubprogram(name: "compare", linkageName: "_ZNKSt3__117basic_string_viewIcNS_11char_traitsIcEEE7compareES3_", scope: !1373, file: !530, line: 342, type: !1452, isLocal: false, isDefinition: false, scopeLine: 342, flags: DIFlagPublic | DIFlagPrototyped, isOptimized: false)
!1452 = !DISubroutineType(types: !1453)
!1453 = !{!14, !1405, !1373}
!1454 = !DISubprogram(name: "compare", linkageName: "_ZNKSt3__117basic_string_viewIcNS_11char_traitsIcEEE7compareEmmS3_", scope: !1373, file: !530, line: 352, type: !1455, isLocal: false, isDefinition: false, scopeLine: 352, flags: DIFlagPublic | DIFlagPrototyped, isOptimized: false)
!1455 = !DISubroutineType(types: !1456)
!1456 = !{!14, !1405, !534, !534, !1373}
!1457 = !DISubprogram(name: "compare", linkageName: "_ZNKSt3__117basic_string_viewIcNS_11char_traitsIcEEE7compareEmmS3_mm", scope: !1373, file: !530, line: 358, type: !1458, isLocal: false, isDefinition: false, scopeLine: 358, flags: DIFlagPublic | DIFlagPrototyped, isOptimized: false)
!1458 = !DISubroutineType(types: !1459)
!1459 = !{!14, !1405, !534, !534, !1373, !534, !534}
!1460 = !DISubprogram(name: "compare", linkageName: "_ZNKSt3__117basic_string_viewIcNS_11char_traitsIcEEE7compareEPKc", scope: !1373, file: !530, line: 365, type: !1461, isLocal: false, isDefinition: false, scopeLine: 365, flags: DIFlagPublic | DIFlagPrototyped, isOptimized: false)
!1461 = !DISubroutineType(types: !1462)
!1462 = !{!14, !1405, !97}
!1463 = !DISubprogram(name: "compare", linkageName: "_ZNKSt3__117basic_string_viewIcNS_11char_traitsIcEEE7compareEmmPKc", scope: !1373, file: !530, line: 371, type: !1464, isLocal: false, isDefinition: false, scopeLine: 371, flags: DIFlagPublic | DIFlagPrototyped, isOptimized: false)
!1464 = !DISubroutineType(types: !1465)
!1465 = !{!14, !1405, !534, !534, !97}
!1466 = !DISubprogram(name: "compare", linkageName: "_ZNKSt3__117basic_string_viewIcNS_11char_traitsIcEEE7compareEmmPKcm", scope: !1373, file: !530, line: 377, type: !1467, isLocal: false, isDefinition: false, scopeLine: 377, flags: DIFlagPublic | DIFlagPrototyped, isOptimized: false)
!1467 = !DISubroutineType(types: !1468)
!1468 = !{!14, !1405, !534, !534, !97, !534}
!1469 = !DISubprogram(name: "find", linkageName: "_ZNKSt3__117basic_string_viewIcNS_11char_traitsIcEEE4findES3_m", scope: !1373, file: !530, line: 384, type: !1470, isLocal: false, isDefinition: false, scopeLine: 384, flags: DIFlagPublic | DIFlagPrototyped, isOptimized: false)
!1470 = !DISubroutineType(types: !1471)
!1471 = !{!1447, !1405, !1373, !534}
!1472 = !DISubprogram(name: "find", linkageName: "_ZNKSt3__117basic_string_viewIcNS_11char_traitsIcEEE4findEcm", scope: !1373, file: !530, line: 392, type: !1473, isLocal: false, isDefinition: false, scopeLine: 392, flags: DIFlagPublic | DIFlagPrototyped, isOptimized: false)
!1473 = !DISubroutineType(types: !1474)
!1474 = !{!1447, !1405, !99, !534}
!1475 = !DISubprogram(name: "find", linkageName: "_ZNKSt3__117basic_string_viewIcNS_11char_traitsIcEEE4findEPKcmm", scope: !1373, file: !530, line: 399, type: !1476, isLocal: false, isDefinition: false, scopeLine: 399, flags: DIFlagPublic | DIFlagPrototyped, isOptimized: false)
!1476 = !DISubroutineType(types: !1477)
!1477 = !{!1447, !1405, !97, !534, !534}
!1478 = !DISubprogram(name: "find", linkageName: "_ZNKSt3__117basic_string_viewIcNS_11char_traitsIcEEE4findEPKcm", scope: !1373, file: !530, line: 407, type: !1479, isLocal: false, isDefinition: false, scopeLine: 407, flags: DIFlagPublic | DIFlagPrototyped, isOptimized: false)
!1479 = !DISubroutineType(types: !1480)
!1480 = !{!1447, !1405, !97, !534}
!1481 = !DISubprogram(name: "rfind", linkageName: "_ZNKSt3__117basic_string_viewIcNS_11char_traitsIcEEE5rfindES3_m", scope: !1373, file: !530, line: 416, type: !1470, isLocal: false, isDefinition: false, scopeLine: 416, flags: DIFlagPublic | DIFlagPrototyped, isOptimized: false)
!1482 = !DISubprogram(name: "rfind", linkageName: "_ZNKSt3__117basic_string_viewIcNS_11char_traitsIcEEE5rfindEcm", scope: !1373, file: !530, line: 424, type: !1473, isLocal: false, isDefinition: false, scopeLine: 424, flags: DIFlagPublic | DIFlagPrototyped, isOptimized: false)
!1483 = !DISubprogram(name: "rfind", linkageName: "_ZNKSt3__117basic_string_viewIcNS_11char_traitsIcEEE5rfindEPKcmm", scope: !1373, file: !530, line: 431, type: !1476, isLocal: false, isDefinition: false, scopeLine: 431, flags: DIFlagPublic | DIFlagPrototyped, isOptimized: false)
!1484 = !DISubprogram(name: "rfind", linkageName: "_ZNKSt3__117basic_string_viewIcNS_11char_traitsIcEEE5rfindEPKcm", scope: !1373, file: !530, line: 439, type: !1479, isLocal: false, isDefinition: false, scopeLine: 439, flags: DIFlagPublic | DIFlagPrototyped, isOptimized: false)
!1485 = !DISubprogram(name: "find_first_of", linkageName: "_ZNKSt3__117basic_string_viewIcNS_11char_traitsIcEEE13find_first_ofES3_m", scope: !1373, file: !530, line: 448, type: !1470, isLocal: false, isDefinition: false, scopeLine: 448, flags: DIFlagPublic | DIFlagPrototyped, isOptimized: false)
!1486 = !DISubprogram(name: "find_first_of", linkageName: "_ZNKSt3__117basic_string_viewIcNS_11char_traitsIcEEE13find_first_ofEcm", scope: !1373, file: !530, line: 456, type: !1473, isLocal: false, isDefinition: false, scopeLine: 456, flags: DIFlagPublic | DIFlagPrototyped, isOptimized: false)
!1487 = !DISubprogram(name: "find_first_of", linkageName: "_ZNKSt3__117basic_string_viewIcNS_11char_traitsIcEEE13find_first_ofEPKcmm", scope: !1373, file: !530, line: 460, type: !1476, isLocal: false, isDefinition: false, scopeLine: 460, flags: DIFlagPublic | DIFlagPrototyped, isOptimized: false)
!1488 = !DISubprogram(name: "find_first_of", linkageName: "_ZNKSt3__117basic_string_viewIcNS_11char_traitsIcEEE13find_first_ofEPKcm", scope: !1373, file: !530, line: 468, type: !1479, isLocal: false, isDefinition: false, scopeLine: 468, flags: DIFlagPublic | DIFlagPrototyped, isOptimized: false)
!1489 = !DISubprogram(name: "find_last_of", linkageName: "_ZNKSt3__117basic_string_viewIcNS_11char_traitsIcEEE12find_last_ofES3_m", scope: !1373, file: !530, line: 477, type: !1470, isLocal: false, isDefinition: false, scopeLine: 477, flags: DIFlagPublic | DIFlagPrototyped, isOptimized: false)
!1490 = !DISubprogram(name: "find_last_of", linkageName: "_ZNKSt3__117basic_string_viewIcNS_11char_traitsIcEEE12find_last_ofEcm", scope: !1373, file: !530, line: 485, type: !1473, isLocal: false, isDefinition: false, scopeLine: 485, flags: DIFlagPublic | DIFlagPrototyped, isOptimized: false)
!1491 = !DISubprogram(name: "find_last_of", linkageName: "_ZNKSt3__117basic_string_viewIcNS_11char_traitsIcEEE12find_last_ofEPKcmm", scope: !1373, file: !530, line: 489, type: !1476, isLocal: false, isDefinition: false, scopeLine: 489, flags: DIFlagPublic | DIFlagPrototyped, isOptimized: false)
!1492 = !DISubprogram(name: "find_last_of", linkageName: "_ZNKSt3__117basic_string_viewIcNS_11char_traitsIcEEE12find_last_ofEPKcm", scope: !1373, file: !530, line: 497, type: !1479, isLocal: false, isDefinition: false, scopeLine: 497, flags: DIFlagPublic | DIFlagPrototyped, isOptimized: false)
!1493 = !DISubprogram(name: "find_first_not_of", linkageName: "_ZNKSt3__117basic_string_viewIcNS_11char_traitsIcEEE17find_first_not_ofES3_m", scope: !1373, file: !530, line: 506, type: !1470, isLocal: false, isDefinition: false, scopeLine: 506, flags: DIFlagPublic | DIFlagPrototyped, isOptimized: false)
!1494 = !DISubprogram(name: "find_first_not_of", linkageName: "_ZNKSt3__117basic_string_viewIcNS_11char_traitsIcEEE17find_first_not_ofEcm", scope: !1373, file: !530, line: 514, type: !1473, isLocal: false, isDefinition: false, scopeLine: 514, flags: DIFlagPublic | DIFlagPrototyped, isOptimized: false)
!1495 = !DISubprogram(name: "find_first_not_of", linkageName: "_ZNKSt3__117basic_string_viewIcNS_11char_traitsIcEEE17find_first_not_ofEPKcmm", scope: !1373, file: !530, line: 521, type: !1476, isLocal: false, isDefinition: false, scopeLine: 521, flags: DIFlagPublic | DIFlagPrototyped, isOptimized: false)
!1496 = !DISubprogram(name: "find_first_not_of", linkageName: "_ZNKSt3__117basic_string_viewIcNS_11char_traitsIcEEE17find_first_not_ofEPKcm", scope: !1373, file: !530, line: 529, type: !1479, isLocal: false, isDefinition: false, scopeLine: 529, flags: DIFlagPublic | DIFlagPrototyped, isOptimized: false)
!1497 = !DISubprogram(name: "find_last_not_of", linkageName: "_ZNKSt3__117basic_string_viewIcNS_11char_traitsIcEEE16find_last_not_ofES3_m", scope: !1373, file: !530, line: 538, type: !1470, isLocal: false, isDefinition: false, scopeLine: 538, flags: DIFlagPublic | DIFlagPrototyped, isOptimized: false)
!1498 = !DISubprogram(name: "find_last_not_of", linkageName: "_ZNKSt3__117basic_string_viewIcNS_11char_traitsIcEEE16find_last_not_ofEcm", scope: !1373, file: !530, line: 546, type: !1473, isLocal: false, isDefinition: false, scopeLine: 546, flags: DIFlagPublic | DIFlagPrototyped, isOptimized: false)
!1499 = !DISubprogram(name: "find_last_not_of", linkageName: "_ZNKSt3__117basic_string_viewIcNS_11char_traitsIcEEE16find_last_not_ofEPKcmm", scope: !1373, file: !530, line: 553, type: !1476, isLocal: false, isDefinition: false, scopeLine: 553, flags: DIFlagPublic | DIFlagPrototyped, isOptimized: false)
!1500 = !DISubprogram(name: "find_last_not_of", linkageName: "_ZNKSt3__117basic_string_viewIcNS_11char_traitsIcEEE16find_last_not_ofEPKcm", scope: !1373, file: !530, line: 561, type: !1479, isLocal: false, isDefinition: false, scopeLine: 561, flags: DIFlagPublic | DIFlagPrototyped, isOptimized: false)
!1501 = !{!1502, !1503}
!1502 = !DITemplateTypeParameter(name: "_CharT", type: !99)
!1503 = !DITemplateTypeParameter(name: "_Traits", type: !1504)
!1504 = distinct !DICompositeType(tag: DW_TAG_structure_type, name: "char_traits<char>", scope: !23, file: !665, line: 199, size: 8, elements: !1505, templateParams: !1551, identifier: "_ZTSNSt3__111char_traitsIcEE")
!1505 = !{!1506, !1513, !1516, !1517, !1521, !1524, !1527, !1531, !1532, !1535, !1539, !1542, !1545, !1548}
!1506 = !DISubprogram(name: "assign", linkageName: "_ZNSt3__111char_traitsIcE6assignERcRKc", scope: !1504, file: !665, line: 208, type: !1507, isLocal: false, isDefinition: false, scopeLine: 208, flags: DIFlagPrototyped, isOptimized: false)
!1507 = !DISubroutineType(types: !1508)
!1508 = !{null, !1509, !1511}
!1509 = !DIDerivedType(tag: DW_TAG_reference_type, baseType: !1510, size: 64)
!1510 = !DIDerivedType(tag: DW_TAG_typedef, name: "char_type", scope: !1504, file: !665, line: 201, baseType: !99)
!1511 = !DIDerivedType(tag: DW_TAG_reference_type, baseType: !1512, size: 64)
!1512 = !DIDerivedType(tag: DW_TAG_const_type, baseType: !1510)
!1513 = !DISubprogram(name: "eq", linkageName: "_ZNSt3__111char_traitsIcE2eqEcc", scope: !1504, file: !665, line: 209, type: !1514, isLocal: false, isDefinition: false, scopeLine: 209, flags: DIFlagPrototyped, isOptimized: false)
!1514 = !DISubroutineType(types: !1515)
!1515 = !{!60, !1510, !1510}
!1516 = !DISubprogram(name: "lt", linkageName: "_ZNSt3__111char_traitsIcE2ltEcc", scope: !1504, file: !665, line: 211, type: !1514, isLocal: false, isDefinition: false, scopeLine: 211, flags: DIFlagPrototyped, isOptimized: false)
!1517 = !DISubprogram(name: "compare", linkageName: "_ZNSt3__111char_traitsIcE7compareEPKcS3_m", scope: !1504, file: !665, line: 215, type: !1518, isLocal: false, isDefinition: false, scopeLine: 215, flags: DIFlagPrototyped, isOptimized: false)
!1518 = !DISubroutineType(types: !1519)
!1519 = !{!14, !1520, !1520, !124}
!1520 = !DIDerivedType(tag: DW_TAG_pointer_type, baseType: !1512, size: 64)
!1521 = !DISubprogram(name: "length", linkageName: "_ZNSt3__111char_traitsIcE6lengthEPKc", scope: !1504, file: !665, line: 217, type: !1522, isLocal: false, isDefinition: false, scopeLine: 217, flags: DIFlagPrototyped, isOptimized: false)
!1522 = !DISubroutineType(types: !1523)
!1523 = !{!124, !1520}
!1524 = !DISubprogram(name: "find", linkageName: "_ZNSt3__111char_traitsIcE4findEPKcmRS2_", scope: !1504, file: !665, line: 219, type: !1525, isLocal: false, isDefinition: false, scopeLine: 219, flags: DIFlagPrototyped, isOptimized: false)
!1525 = !DISubroutineType(types: !1526)
!1526 = !{!1520, !1520, !124, !1511}
!1527 = !DISubprogram(name: "move", linkageName: "_ZNSt3__111char_traitsIcE4moveEPcPKcm", scope: !1504, file: !665, line: 220, type: !1528, isLocal: false, isDefinition: false, scopeLine: 220, flags: DIFlagPrototyped, isOptimized: false)
!1528 = !DISubroutineType(types: !1529)
!1529 = !{!1530, !1530, !1520, !124}
!1530 = !DIDerivedType(tag: DW_TAG_pointer_type, baseType: !1510, size: 64)
!1531 = !DISubprogram(name: "copy", linkageName: "_ZNSt3__111char_traitsIcE4copyEPcPKcm", scope: !1504, file: !665, line: 222, type: !1528, isLocal: false, isDefinition: false, scopeLine: 222, flags: DIFlagPrototyped, isOptimized: false)
!1532 = !DISubprogram(name: "assign", linkageName: "_ZNSt3__111char_traitsIcE6assignEPcmc", scope: !1504, file: !665, line: 227, type: !1533, isLocal: false, isDefinition: false, scopeLine: 227, flags: DIFlagPrototyped, isOptimized: false)
!1533 = !DISubroutineType(types: !1534)
!1534 = !{!1530, !1530, !124, !1510}
!1535 = !DISubprogram(name: "not_eof", linkageName: "_ZNSt3__111char_traitsIcE7not_eofEi", scope: !1504, file: !665, line: 230, type: !1536, isLocal: false, isDefinition: false, scopeLine: 230, flags: DIFlagPrototyped, isOptimized: false)
!1536 = !DISubroutineType(types: !1537)
!1537 = !{!1538, !1538}
!1538 = !DIDerivedType(tag: DW_TAG_typedef, name: "int_type", scope: !1504, file: !665, line: 202, baseType: !14)
!1539 = !DISubprogram(name: "to_char_type", linkageName: "_ZNSt3__111char_traitsIcE12to_char_typeEi", scope: !1504, file: !665, line: 232, type: !1540, isLocal: false, isDefinition: false, scopeLine: 232, flags: DIFlagPrototyped, isOptimized: false)
!1540 = !DISubroutineType(types: !1541)
!1541 = !{!1510, !1538}
!1542 = !DISubprogram(name: "to_int_type", linkageName: "_ZNSt3__111char_traitsIcE11to_int_typeEc", scope: !1504, file: !665, line: 234, type: !1543, isLocal: false, isDefinition: false, scopeLine: 234, flags: DIFlagPrototyped, isOptimized: false)
!1543 = !DISubroutineType(types: !1544)
!1544 = !{!1538, !1510}
!1545 = !DISubprogram(name: "eq_int_type", linkageName: "_ZNSt3__111char_traitsIcE11eq_int_typeEii", scope: !1504, file: !665, line: 236, type: !1546, isLocal: false, isDefinition: false, scopeLine: 236, flags: DIFlagPrototyped, isOptimized: false)
!1546 = !DISubroutineType(types: !1547)
!1547 = !{!60, !1538, !1538}
!1548 = !DISubprogram(name: "eof", linkageName: "_ZNSt3__111char_traitsIcE3eofEv", scope: !1504, file: !665, line: 238, type: !1549, isLocal: false, isDefinition: false, scopeLine: 238, flags: DIFlagPrototyped, isOptimized: false)
!1549 = !DISubroutineType(types: !1550)
!1550 = !{!1538}
!1551 = !{!1502}
!1552 = !DISubprogram(name: "basic_string", scope: !1103, file: !205, line: 799, type: !1553, isLocal: false, isDefinition: false, scopeLine: 799, flags: DIFlagPublic | DIFlagPrototyped, isOptimized: false)
!1553 = !DISubroutineType(types: !1554)
!1554 = !{null, !1323, !1372, !1292}
!1555 = !DISubprogram(name: "basic_string", scope: !1103, file: !205, line: 808, type: !1556, isLocal: false, isDefinition: false, scopeLine: 808, flags: DIFlagPublic | DIFlagPrototyped, isOptimized: false)
!1556 = !DISubroutineType(types: !1557)
!1557 = !{null, !1323, !1558}
!1558 = distinct !DICompositeType(tag: DW_TAG_class_type, name: "initializer_list<char>", scope: !24, file: !724, line: 59, size: 128, elements: !1559, templateParams: !1578, identifier: "_ZTSSt16initializer_listIcE")
!1559 = !{!1560, !1561, !1562, !1566, !1569, !1574, !1577}
!1560 = !DIDerivedType(tag: DW_TAG_member, name: "__begin_", scope: !1558, file: !724, line: 61, baseType: !97, size: 64)
!1561 = !DIDerivedType(tag: DW_TAG_member, name: "__size_", scope: !1558, file: !724, line: 62, baseType: !124, size: 64, offset: 64)
!1562 = !DISubprogram(name: "initializer_list", scope: !1558, file: !724, line: 66, type: !1563, isLocal: false, isDefinition: false, scopeLine: 66, flags: DIFlagPrototyped, isOptimized: false)
!1563 = !DISubroutineType(types: !1564)
!1564 = !{null, !1565, !97, !124}
!1565 = !DIDerivedType(tag: DW_TAG_pointer_type, baseType: !1558, size: 64, flags: DIFlagArtificial | DIFlagObjectPointer)
!1566 = !DISubprogram(name: "initializer_list", scope: !1558, file: !724, line: 81, type: !1567, isLocal: false, isDefinition: false, scopeLine: 81, flags: DIFlagPublic | DIFlagPrototyped, isOptimized: false)
!1567 = !DISubroutineType(types: !1568)
!1568 = !{null, !1565}
!1569 = !DISubprogram(name: "size", linkageName: "_ZNKSt16initializer_listIcE4sizeEv", scope: !1558, file: !724, line: 85, type: !1570, isLocal: false, isDefinition: false, scopeLine: 85, flags: DIFlagPublic | DIFlagPrototyped, isOptimized: false)
!1570 = !DISubroutineType(types: !1571)
!1571 = !{!124, !1572}
!1572 = !DIDerivedType(tag: DW_TAG_pointer_type, baseType: !1573, size: 64, flags: DIFlagArtificial | DIFlagObjectPointer)
!1573 = !DIDerivedType(tag: DW_TAG_const_type, baseType: !1558)
!1574 = !DISubprogram(name: "begin", linkageName: "_ZNKSt16initializer_listIcE5beginEv", scope: !1558, file: !724, line: 89, type: !1575, isLocal: false, isDefinition: false, scopeLine: 89, flags: DIFlagPublic | DIFlagPrototyped, isOptimized: false)
!1575 = !DISubroutineType(types: !1576)
!1576 = !{!97, !1572}
!1577 = !DISubprogram(name: "end", linkageName: "_ZNKSt16initializer_listIcE3endEv", scope: !1558, file: !724, line: 93, type: !1575, isLocal: false, isDefinition: false, scopeLine: 93, flags: DIFlagPublic | DIFlagPrototyped, isOptimized: false)
!1578 = !{!1579}
!1579 = !DITemplateTypeParameter(name: "_Ep", type: !99)
!1580 = !DISubprogram(name: "basic_string", scope: !1103, file: !205, line: 810, type: !1581, isLocal: false, isDefinition: false, scopeLine: 810, flags: DIFlagPublic | DIFlagPrototyped, isOptimized: false)
!1581 = !DISubroutineType(types: !1582)
!1582 = !{null, !1323, !1558, !1292}
!1583 = !DISubprogram(name: "~basic_string", scope: !1103, file: !205, line: 813, type: !1321, isLocal: false, isDefinition: false, scopeLine: 813, flags: DIFlagPublic | DIFlagPrototyped, isOptimized: false)
!1584 = !DISubprogram(name: "operator basic_string_view", linkageName: "_ZNKSt3__112basic_stringIcNS_11char_traitsIcEENS_9allocatorIcEEEcvNS_17basic_string_viewIcS2_EEEv", scope: !1103, file: !205, line: 816, type: !1585, isLocal: false, isDefinition: false, scopeLine: 816, flags: DIFlagPublic | DIFlagPrototyped, isOptimized: false)
!1585 = !DISubroutineType(types: !1586)
!1586 = !{!1372, !1587}
!1587 = !DIDerivedType(tag: DW_TAG_pointer_type, baseType: !1334, size: 64, flags: DIFlagArtificial | DIFlagObjectPointer)
!1588 = !DISubprogram(name: "operator=", linkageName: "_ZNSt3__112basic_stringIcNS_11char_traitsIcEENS_9allocatorIcEEEaSERKS5_", scope: !1103, file: !205, line: 818, type: !1589, isLocal: false, isDefinition: false, scopeLine: 818, flags: DIFlagPublic | DIFlagPrototyped, isOptimized: false)
!1589 = !DISubroutineType(types: !1590)
!1590 = !{!1591, !1323, !1333}
!1591 = !DIDerivedType(tag: DW_TAG_reference_type, baseType: !1103, size: 64)
!1592 = !DISubprogram(name: "operator=", linkageName: "_ZNSt3__112basic_stringIcNS_11char_traitsIcEENS_9allocatorIcEEEaSEOS5_", scope: !1103, file: !205, line: 827, type: !1593, isLocal: false, isDefinition: false, scopeLine: 827, flags: DIFlagPublic | DIFlagPrototyped, isOptimized: false)
!1593 = !DISubroutineType(types: !1594)
!1594 = !{!1591, !1323, !1341}
!1595 = !DISubprogram(name: "operator=", linkageName: "_ZNSt3__112basic_stringIcNS_11char_traitsIcEENS_9allocatorIcEEEaSESt16initializer_listIcE", scope: !1103, file: !205, line: 830, type: !1596, isLocal: false, isDefinition: false, scopeLine: 830, flags: DIFlagPublic | DIFlagPrototyped, isOptimized: false)
!1596 = !DISubroutineType(types: !1597)
!1597 = !{!1591, !1323, !1558}
!1598 = !DISubprogram(name: "operator=", linkageName: "_ZNSt3__112basic_stringIcNS_11char_traitsIcEENS_9allocatorIcEEEaSEPKc", scope: !1103, file: !205, line: 832, type: !1599, isLocal: false, isDefinition: false, scopeLine: 832, flags: DIFlagPublic | DIFlagPrototyped, isOptimized: false)
!1599 = !DISubroutineType(types: !1600)
!1600 = !{!1591, !1323, !1601}
!1601 = !DIDerivedType(tag: DW_TAG_pointer_type, baseType: !1602, size: 64)
!1602 = !DIDerivedType(tag: DW_TAG_const_type, baseType: !1246)
!1603 = !DISubprogram(name: "operator=", linkageName: "_ZNSt3__112basic_stringIcNS_11char_traitsIcEENS_9allocatorIcEEEaSEc", scope: !1103, file: !205, line: 833, type: !1604, isLocal: false, isDefinition: false, scopeLine: 833, flags: DIFlagPublic | DIFlagPrototyped, isOptimized: false)
!1604 = !DISubroutineType(types: !1605)
!1605 = !{!1591, !1323, !1246}
!1606 = !DISubprogram(name: "begin", linkageName: "_ZNSt3__112basic_stringIcNS_11char_traitsIcEENS_9allocatorIcEEE5beginEv", scope: !1103, file: !205, line: 850, type: !1607, isLocal: false, isDefinition: false, scopeLine: 850, flags: DIFlagPublic | DIFlagPrototyped, isOptimized: false)
!1607 = !DISubroutineType(types: !1608)
!1608 = !{!1609, !1323}
!1609 = !DIDerivedType(tag: DW_TAG_typedef, name: "iterator", scope: !1103, file: !205, line: 656, baseType: !1610)
!1610 = !DICompositeType(tag: DW_TAG_class_type, name: "__wrap_iter<char *>", scope: !23, file: !573, line: 1279, flags: DIFlagFwdDecl, identifier: "_ZTSNSt3__111__wrap_iterIPcEE")
!1611 = !DISubprogram(name: "begin", linkageName: "_ZNKSt3__112basic_stringIcNS_11char_traitsIcEENS_9allocatorIcEEE5beginEv", scope: !1103, file: !205, line: 853, type: !1612, isLocal: false, isDefinition: false, scopeLine: 853, flags: DIFlagPublic | DIFlagPrototyped, isOptimized: false)
!1612 = !DISubroutineType(types: !1613)
!1613 = !{!1614, !1587}
!1614 = !DIDerivedType(tag: DW_TAG_typedef, name: "const_iterator", scope: !1103, file: !205, line: 657, baseType: !1615)
!1615 = !DICompositeType(tag: DW_TAG_class_type, name: "__wrap_iter<const char *>", scope: !23, file: !573, line: 1279, flags: DIFlagFwdDecl, identifier: "_ZTSNSt3__111__wrap_iterIPKcEE")
!1616 = !DISubprogram(name: "end", linkageName: "_ZNSt3__112basic_stringIcNS_11char_traitsIcEENS_9allocatorIcEEE3endEv", scope: !1103, file: !205, line: 856, type: !1607, isLocal: false, isDefinition: false, scopeLine: 856, flags: DIFlagPublic | DIFlagPrototyped, isOptimized: false)
!1617 = !DISubprogram(name: "end", linkageName: "_ZNKSt3__112basic_stringIcNS_11char_traitsIcEENS_9allocatorIcEEE3endEv", scope: !1103, file: !205, line: 859, type: !1612, isLocal: false, isDefinition: false, scopeLine: 859, flags: DIFlagPublic | DIFlagPrototyped, isOptimized: false)
!1618 = !DISubprogram(name: "rbegin", linkageName: "_ZNSt3__112basic_stringIcNS_11char_traitsIcEENS_9allocatorIcEEE6rbeginEv", scope: !1103, file: !205, line: 863, type: !1619, isLocal: false, isDefinition: false, scopeLine: 863, flags: DIFlagPublic | DIFlagPrototyped, isOptimized: false)
!1619 = !DISubroutineType(types: !1620)
!1620 = !{!1621, !1323}
!1621 = !DIDerivedType(tag: DW_TAG_typedef, name: "reverse_iterator", scope: !1103, file: !205, line: 659, baseType: !1622)
!1622 = !DICompositeType(tag: DW_TAG_class_type, name: "reverse_iterator<std::__1::__wrap_iter<char *> >", scope: !23, file: !573, line: 636, flags: DIFlagFwdDecl, identifier: "_ZTSNSt3__116reverse_iteratorINS_11__wrap_iterIPcEEEE")
!1623 = !DISubprogram(name: "rbegin", linkageName: "_ZNKSt3__112basic_stringIcNS_11char_traitsIcEENS_9allocatorIcEEE6rbeginEv", scope: !1103, file: !205, line: 866, type: !1624, isLocal: false, isDefinition: false, scopeLine: 866, flags: DIFlagPublic | DIFlagPrototyped, isOptimized: false)
!1624 = !DISubroutineType(types: !1625)
!1625 = !{!1626, !1587}
!1626 = !DIDerivedType(tag: DW_TAG_typedef, name: "const_reverse_iterator", scope: !1103, file: !205, line: 660, baseType: !1627)
!1627 = !DICompositeType(tag: DW_TAG_class_type, name: "reverse_iterator<std::__1::__wrap_iter<const char *> >", scope: !23, file: !573, line: 636, flags: DIFlagFwdDecl, identifier: "_ZTSNSt3__116reverse_iteratorINS_11__wrap_iterIPKcEEEE")
!1628 = !DISubprogram(name: "rend", linkageName: "_ZNSt3__112basic_stringIcNS_11char_traitsIcEENS_9allocatorIcEEE4rendEv", scope: !1103, file: !205, line: 869, type: !1619, isLocal: false, isDefinition: false, scopeLine: 869, flags: DIFlagPublic | DIFlagPrototyped, isOptimized: false)
!1629 = !DISubprogram(name: "rend", linkageName: "_ZNKSt3__112basic_stringIcNS_11char_traitsIcEENS_9allocatorIcEEE4rendEv", scope: !1103, file: !205, line: 872, type: !1624, isLocal: false, isDefinition: false, scopeLine: 872, flags: DIFlagPublic | DIFlagPrototyped, isOptimized: false)
!1630 = !DISubprogram(name: "cbegin", linkageName: "_ZNKSt3__112basic_stringIcNS_11char_traitsIcEENS_9allocatorIcEEE6cbeginEv", scope: !1103, file: !205, line: 876, type: !1612, isLocal: false, isDefinition: false, scopeLine: 876, flags: DIFlagPublic | DIFlagPrototyped, isOptimized: false)
!1631 = !DISubprogram(name: "cend", linkageName: "_ZNKSt3__112basic_stringIcNS_11char_traitsIcEENS_9allocatorIcEEE4cendEv", scope: !1103, file: !205, line: 879, type: !1612, isLocal: false, isDefinition: false, scopeLine: 879, flags: DIFlagPublic | DIFlagPrototyped, isOptimized: false)
!1632 = !DISubprogram(name: "crbegin", linkageName: "_ZNKSt3__112basic_stringIcNS_11char_traitsIcEENS_9allocatorIcEEE7crbeginEv", scope: !1103, file: !205, line: 882, type: !1624, isLocal: false, isDefinition: false, scopeLine: 882, flags: DIFlagPublic | DIFlagPrototyped, isOptimized: false)
!1633 = !DISubprogram(name: "crend", linkageName: "_ZNKSt3__112basic_stringIcNS_11char_traitsIcEENS_9allocatorIcEEE5crendEv", scope: !1103, file: !205, line: 885, type: !1624, isLocal: false, isDefinition: false, scopeLine: 885, flags: DIFlagPublic | DIFlagPrototyped, isOptimized: false)
!1634 = !DISubprogram(name: "size", linkageName: "_ZNKSt3__112basic_stringIcNS_11char_traitsIcEENS_9allocatorIcEEE4sizeEv", scope: !1103, file: !205, line: 888, type: !1635, isLocal: false, isDefinition: false, scopeLine: 888, flags: DIFlagPublic | DIFlagPrototyped, isOptimized: false)
!1635 = !DISubroutineType(types: !1636)
!1636 = !{!1108, !1587}
!1637 = !DISubprogram(name: "length", linkageName: "_ZNKSt3__112basic_stringIcNS_11char_traitsIcEENS_9allocatorIcEEE6lengthEv", scope: !1103, file: !205, line: 890, type: !1635, isLocal: false, isDefinition: false, scopeLine: 890, flags: DIFlagPublic | DIFlagPrototyped, isOptimized: false)
!1638 = !DISubprogram(name: "max_size", linkageName: "_ZNKSt3__112basic_stringIcNS_11char_traitsIcEENS_9allocatorIcEEE8max_sizeEv", scope: !1103, file: !205, line: 891, type: !1635, isLocal: false, isDefinition: false, scopeLine: 891, flags: DIFlagPublic | DIFlagPrototyped, isOptimized: false)
!1639 = !DISubprogram(name: "capacity", linkageName: "_ZNKSt3__112basic_stringIcNS_11char_traitsIcEENS_9allocatorIcEEE8capacityEv", scope: !1103, file: !205, line: 892, type: !1635, isLocal: false, isDefinition: false, scopeLine: 892, flags: DIFlagPublic | DIFlagPrototyped, isOptimized: false)
!1640 = !DISubprogram(name: "resize", linkageName: "_ZNSt3__112basic_stringIcNS_11char_traitsIcEENS_9allocatorIcEEE6resizeEmc", scope: !1103, file: !205, line: 896, type: !1641, isLocal: false, isDefinition: false, scopeLine: 896, flags: DIFlagPublic | DIFlagPrototyped, isOptimized: false)
!1641 = !DISubroutineType(types: !1642)
!1642 = !{null, !1323, !1108, !1246}
!1643 = !DISubprogram(name: "resize", linkageName: "_ZNSt3__112basic_stringIcNS_11char_traitsIcEENS_9allocatorIcEEE6resizeEm", scope: !1103, file: !205, line: 897, type: !1644, isLocal: false, isDefinition: false, scopeLine: 897, flags: DIFlagPublic | DIFlagPrototyped, isOptimized: false)
!1644 = !DISubroutineType(types: !1645)
!1645 = !{null, !1323, !1108}
!1646 = !DISubprogram(name: "reserve", linkageName: "_ZNSt3__112basic_stringIcNS_11char_traitsIcEENS_9allocatorIcEEE7reserveEm", scope: !1103, file: !205, line: 899, type: !1644, isLocal: false, isDefinition: false, scopeLine: 899, flags: DIFlagPublic | DIFlagPrototyped, isOptimized: false)
!1647 = !DISubprogram(name: "shrink_to_fit", linkageName: "_ZNSt3__112basic_stringIcNS_11char_traitsIcEENS_9allocatorIcEEE13shrink_to_fitEv", scope: !1103, file: !205, line: 901, type: !1321, isLocal: false, isDefinition: false, scopeLine: 901, flags: DIFlagPublic | DIFlagPrototyped, isOptimized: false)
!1648 = !DISubprogram(name: "clear", linkageName: "_ZNSt3__112basic_stringIcNS_11char_traitsIcEENS_9allocatorIcEEE5clearEv", scope: !1103, file: !205, line: 903, type: !1321, isLocal: false, isDefinition: false, scopeLine: 903, flags: DIFlagPublic | DIFlagPrototyped, isOptimized: false)
!1649 = !DISubprogram(name: "empty", linkageName: "_ZNKSt3__112basic_stringIcNS_11char_traitsIcEENS_9allocatorIcEEE5emptyEv", scope: !1103, file: !205, line: 904, type: !1650, isLocal: false, isDefinition: false, scopeLine: 904, flags: DIFlagPublic | DIFlagPrototyped, isOptimized: false)
!1650 = !DISubroutineType(types: !1651)
!1651 = !{!60, !1587}
!1652 = !DISubprogram(name: "operator[]", linkageName: "_ZNKSt3__112basic_stringIcNS_11char_traitsIcEENS_9allocatorIcEEEixEm", scope: !1103, file: !205, line: 906, type: !1653, isLocal: false, isDefinition: false, scopeLine: 906, flags: DIFlagPublic | DIFlagPrototyped, isOptimized: false)
!1653 = !DISubroutineType(types: !1654)
!1654 = !{!1655, !1587, !1108}
!1655 = !DIDerivedType(tag: DW_TAG_typedef, name: "const_reference", scope: !1103, file: !205, line: 643, baseType: !1656)
!1656 = !DIDerivedType(tag: DW_TAG_reference_type, baseType: !1602, size: 64)
!1657 = !DISubprogram(name: "operator[]", linkageName: "_ZNSt3__112basic_stringIcNS_11char_traitsIcEENS_9allocatorIcEEEixEm", scope: !1103, file: !205, line: 907, type: !1658, isLocal: false, isDefinition: false, scopeLine: 907, flags: DIFlagPublic | DIFlagPrototyped, isOptimized: false)
!1658 = !DISubroutineType(types: !1659)
!1659 = !{!1660, !1323, !1108}
!1660 = !DIDerivedType(tag: DW_TAG_typedef, name: "reference", scope: !1103, file: !205, line: 642, baseType: !1661)
!1661 = !DIDerivedType(tag: DW_TAG_reference_type, baseType: !1246, size: 64)
!1662 = !DISubprogram(name: "at", linkageName: "_ZNKSt3__112basic_stringIcNS_11char_traitsIcEENS_9allocatorIcEEE2atEm", scope: !1103, file: !205, line: 909, type: !1653, isLocal: false, isDefinition: false, scopeLine: 909, flags: DIFlagPublic | DIFlagPrototyped, isOptimized: false)
!1663 = !DISubprogram(name: "at", linkageName: "_ZNSt3__112basic_stringIcNS_11char_traitsIcEENS_9allocatorIcEEE2atEm", scope: !1103, file: !205, line: 910, type: !1658, isLocal: false, isDefinition: false, scopeLine: 910, flags: DIFlagPublic | DIFlagPrototyped, isOptimized: false)
!1664 = !DISubprogram(name: "operator+=", linkageName: "_ZNSt3__112basic_stringIcNS_11char_traitsIcEENS_9allocatorIcEEEpLERKS5_", scope: !1103, file: !205, line: 912, type: !1589, isLocal: false, isDefinition: false, scopeLine: 912, flags: DIFlagPublic | DIFlagPrototyped, isOptimized: false)
!1665 = !DISubprogram(name: "operator+=", linkageName: "_ZNSt3__112basic_stringIcNS_11char_traitsIcEENS_9allocatorIcEEEpLENS_17basic_string_viewIcS2_EE", scope: !1103, file: !205, line: 913, type: !1666, isLocal: false, isDefinition: false, scopeLine: 913, flags: DIFlagPublic | DIFlagPrototyped, isOptimized: false)
!1666 = !DISubroutineType(types: !1667)
!1667 = !{!1591, !1323, !1372}
!1668 = !DISubprogram(name: "operator+=", linkageName: "_ZNSt3__112basic_stringIcNS_11char_traitsIcEENS_9allocatorIcEEEpLEPKc", scope: !1103, file: !205, line: 914, type: !1599, isLocal: false, isDefinition: false, scopeLine: 914, flags: DIFlagPublic | DIFlagPrototyped, isOptimized: false)
!1669 = !DISubprogram(name: "operator+=", linkageName: "_ZNSt3__112basic_stringIcNS_11char_traitsIcEENS_9allocatorIcEEEpLEc", scope: !1103, file: !205, line: 915, type: !1604, isLocal: false, isDefinition: false, scopeLine: 915, flags: DIFlagPublic | DIFlagPrototyped, isOptimized: false)
!1670 = !DISubprogram(name: "operator+=", linkageName: "_ZNSt3__112basic_stringIcNS_11char_traitsIcEENS_9allocatorIcEEEpLESt16initializer_listIcE", scope: !1103, file: !205, line: 917, type: !1596, isLocal: false, isDefinition: false, scopeLine: 917, flags: DIFlagPublic | DIFlagPrototyped, isOptimized: false)
!1671 = !DISubprogram(name: "append", linkageName: "_ZNSt3__112basic_stringIcNS_11char_traitsIcEENS_9allocatorIcEEE6appendERKS5_", scope: !1103, file: !205, line: 921, type: !1589, isLocal: false, isDefinition: false, scopeLine: 921, flags: DIFlagPublic | DIFlagPrototyped, isOptimized: false)
!1672 = !DISubprogram(name: "append", linkageName: "_ZNSt3__112basic_stringIcNS_11char_traitsIcEENS_9allocatorIcEEE6appendENS_17basic_string_viewIcS2_EE", scope: !1103, file: !205, line: 923, type: !1666, isLocal: false, isDefinition: false, scopeLine: 923, flags: DIFlagPublic | DIFlagPrototyped, isOptimized: false)
!1673 = !DISubprogram(name: "append", linkageName: "_ZNSt3__112basic_stringIcNS_11char_traitsIcEENS_9allocatorIcEEE6appendERKS5_mm", scope: !1103, file: !205, line: 924, type: !1674, isLocal: false, isDefinition: false, scopeLine: 924, flags: DIFlagPublic | DIFlagPrototyped, isOptimized: false)
!1674 = !DISubroutineType(types: !1675)
!1675 = !{!1591, !1323, !1333, !1108, !1108}
!1676 = !DISubprogram(name: "append", linkageName: "_ZNSt3__112basic_stringIcNS_11char_traitsIcEENS_9allocatorIcEEE6appendEPKcm", scope: !1103, file: !205, line: 933, type: !1677, isLocal: false, isDefinition: false, scopeLine: 933, flags: DIFlagPublic | DIFlagPrototyped, isOptimized: false)
!1677 = !DISubroutineType(types: !1678)
!1678 = !{!1591, !1323, !1601, !1108}
!1679 = !DISubprogram(name: "append", linkageName: "_ZNSt3__112basic_stringIcNS_11char_traitsIcEENS_9allocatorIcEEE6appendEPKc", scope: !1103, file: !205, line: 934, type: !1599, isLocal: false, isDefinition: false, scopeLine: 934, flags: DIFlagPublic | DIFlagPrototyped, isOptimized: false)
!1680 = !DISubprogram(name: "append", linkageName: "_ZNSt3__112basic_stringIcNS_11char_traitsIcEENS_9allocatorIcEEE6appendEmc", scope: !1103, file: !205, line: 935, type: !1681, isLocal: false, isDefinition: false, scopeLine: 935, flags: DIFlagPublic | DIFlagPrototyped, isOptimized: false)
!1681 = !DISubroutineType(types: !1682)
!1682 = !{!1591, !1323, !1108, !1246}
!1683 = !DISubprogram(name: "append", linkageName: "_ZNSt3__112basic_stringIcNS_11char_traitsIcEENS_9allocatorIcEEE6appendESt16initializer_listIcE", scope: !1103, file: !205, line: 968, type: !1596, isLocal: false, isDefinition: false, scopeLine: 968, flags: DIFlagPublic | DIFlagPrototyped, isOptimized: false)
!1684 = !DISubprogram(name: "push_back", linkageName: "_ZNSt3__112basic_stringIcNS_11char_traitsIcEENS_9allocatorIcEEE9push_backEc", scope: !1103, file: !205, line: 971, type: !1685, isLocal: false, isDefinition: false, scopeLine: 971, flags: DIFlagPublic | DIFlagPrototyped, isOptimized: false)
!1685 = !DISubroutineType(types: !1686)
!1686 = !{null, !1323, !1246}
!1687 = !DISubprogram(name: "pop_back", linkageName: "_ZNSt3__112basic_stringIcNS_11char_traitsIcEENS_9allocatorIcEEE8pop_backEv", scope: !1103, file: !205, line: 973, type: !1321, isLocal: false, isDefinition: false, scopeLine: 973, flags: DIFlagPublic | DIFlagPrototyped, isOptimized: false)
!1688 = !DISubprogram(name: "front", linkageName: "_ZNSt3__112basic_stringIcNS_11char_traitsIcEENS_9allocatorIcEEE5frontEv", scope: !1103, file: !205, line: 974, type: !1689, isLocal: false, isDefinition: false, scopeLine: 974, flags: DIFlagPublic | DIFlagPrototyped, isOptimized: false)
!1689 = !DISubroutineType(types: !1690)
!1690 = !{!1660, !1323}
!1691 = !DISubprogram(name: "front", linkageName: "_ZNKSt3__112basic_stringIcNS_11char_traitsIcEENS_9allocatorIcEEE5frontEv", scope: !1103, file: !205, line: 975, type: !1692, isLocal: false, isDefinition: false, scopeLine: 975, flags: DIFlagPublic | DIFlagPrototyped, isOptimized: false)
!1692 = !DISubroutineType(types: !1693)
!1693 = !{!1655, !1587}
!1694 = !DISubprogram(name: "back", linkageName: "_ZNSt3__112basic_stringIcNS_11char_traitsIcEENS_9allocatorIcEEE4backEv", scope: !1103, file: !205, line: 976, type: !1689, isLocal: false, isDefinition: false, scopeLine: 976, flags: DIFlagPublic | DIFlagPrototyped, isOptimized: false)
!1695 = !DISubprogram(name: "back", linkageName: "_ZNKSt3__112basic_stringIcNS_11char_traitsIcEENS_9allocatorIcEEE4backEv", scope: !1103, file: !205, line: 977, type: !1692, isLocal: false, isDefinition: false, scopeLine: 977, flags: DIFlagPublic | DIFlagPrototyped, isOptimized: false)
!1696 = !DISubprogram(name: "assign", linkageName: "_ZNSt3__112basic_stringIcNS_11char_traitsIcEENS_9allocatorIcEEE6assignENS_17basic_string_viewIcS2_EE", scope: !1103, file: !205, line: 980, type: !1666, isLocal: false, isDefinition: false, scopeLine: 980, flags: DIFlagPublic | DIFlagPrototyped, isOptimized: false)
!1697 = !DISubprogram(name: "assign", linkageName: "_ZNSt3__112basic_stringIcNS_11char_traitsIcEENS_9allocatorIcEEE6assignERKS5_", scope: !1103, file: !205, line: 982, type: !1589, isLocal: false, isDefinition: false, scopeLine: 982, flags: DIFlagPublic | DIFlagPrototyped, isOptimized: false)
!1698 = !DISubprogram(name: "assign", linkageName: "_ZNSt3__112basic_stringIcNS_11char_traitsIcEENS_9allocatorIcEEE6assignEOS5_", scope: !1103, file: !205, line: 985, type: !1593, isLocal: false, isDefinition: false, scopeLine: 985, flags: DIFlagPublic | DIFlagPrototyped, isOptimized: false)
!1699 = !DISubprogram(name: "assign", linkageName: "_ZNSt3__112basic_stringIcNS_11char_traitsIcEENS_9allocatorIcEEE6assignERKS5_mm", scope: !1103, file: !205, line: 989, type: !1674, isLocal: false, isDefinition: false, scopeLine: 989, flags: DIFlagPublic | DIFlagPrototyped, isOptimized: false)
!1700 = !DISubprogram(name: "assign", linkageName: "_ZNSt3__112basic_stringIcNS_11char_traitsIcEENS_9allocatorIcEEE6assignEPKcm", scope: !1103, file: !205, line: 998, type: !1677, isLocal: false, isDefinition: false, scopeLine: 998, flags: DIFlagPublic | DIFlagPrototyped, isOptimized: false)
!1701 = !DISubprogram(name: "assign", linkageName: "_ZNSt3__112basic_stringIcNS_11char_traitsIcEENS_9allocatorIcEEE6assignEPKc", scope: !1103, file: !205, line: 999, type: !1599, isLocal: false, isDefinition: false, scopeLine: 999, flags: DIFlagPublic | DIFlagPrototyped, isOptimized: false)
!1702 = !DISubprogram(name: "assign", linkageName: "_ZNSt3__112basic_stringIcNS_11char_traitsIcEENS_9allocatorIcEEE6assignEmc", scope: !1103, file: !205, line: 1000, type: !1681, isLocal: false, isDefinition: false, scopeLine: 1000, flags: DIFlagPublic | DIFlagPrototyped, isOptimized: false)
!1703 = !DISubprogram(name: "assign", linkageName: "_ZNSt3__112basic_stringIcNS_11char_traitsIcEENS_9allocatorIcEEE6assignESt16initializer_listIcE", scope: !1103, file: !205, line: 1021, type: !1596, isLocal: false, isDefinition: false, scopeLine: 1021, flags: DIFlagPublic | DIFlagPrototyped, isOptimized: false)
!1704 = !DISubprogram(name: "insert", linkageName: "_ZNSt3__112basic_stringIcNS_11char_traitsIcEENS_9allocatorIcEEE6insertEmRKS5_", scope: !1103, file: !205, line: 1025, type: !1705, isLocal: false, isDefinition: false, scopeLine: 1025, flags: DIFlagPublic | DIFlagPrototyped, isOptimized: false)
!1705 = !DISubroutineType(types: !1706)
!1706 = !{!1591, !1323, !1108, !1333}
!1707 = !DISubprogram(name: "insert", linkageName: "_ZNSt3__112basic_stringIcNS_11char_traitsIcEENS_9allocatorIcEEE6insertEmNS_17basic_string_viewIcS2_EE", scope: !1103, file: !205, line: 1027, type: !1708, isLocal: false, isDefinition: false, scopeLine: 1027, flags: DIFlagPublic | DIFlagPrototyped, isOptimized: false)
!1708 = !DISubroutineType(types: !1709)
!1709 = !{!1591, !1323, !1108, !1372}
!1710 = !DISubprogram(name: "insert", linkageName: "_ZNSt3__112basic_stringIcNS_11char_traitsIcEENS_9allocatorIcEEE6insertEmRKS5_mm", scope: !1103, file: !205, line: 1036, type: !1711, isLocal: false, isDefinition: false, scopeLine: 1036, flags: DIFlagPublic | DIFlagPrototyped, isOptimized: false)
!1711 = !DISubroutineType(types: !1712)
!1712 = !{!1591, !1323, !1108, !1333, !1108, !1108}
!1713 = !DISubprogram(name: "insert", linkageName: "_ZNSt3__112basic_stringIcNS_11char_traitsIcEENS_9allocatorIcEEE6insertEmPKcm", scope: !1103, file: !205, line: 1037, type: !1714, isLocal: false, isDefinition: false, scopeLine: 1037, flags: DIFlagPublic | DIFlagPrototyped, isOptimized: false)
!1714 = !DISubroutineType(types: !1715)
!1715 = !{!1591, !1323, !1108, !1601, !1108}
!1716 = !DISubprogram(name: "insert", linkageName: "_ZNSt3__112basic_stringIcNS_11char_traitsIcEENS_9allocatorIcEEE6insertEmPKc", scope: !1103, file: !205, line: 1038, type: !1717, isLocal: false, isDefinition: false, scopeLine: 1038, flags: DIFlagPublic | DIFlagPrototyped, isOptimized: false)
!1717 = !DISubroutineType(types: !1718)
!1718 = !{!1591, !1323, !1108, !1601}
!1719 = !DISubprogram(name: "insert", linkageName: "_ZNSt3__112basic_stringIcNS_11char_traitsIcEENS_9allocatorIcEEE6insertEmmc", scope: !1103, file: !205, line: 1039, type: !1720, isLocal: false, isDefinition: false, scopeLine: 1039, flags: DIFlagPublic | DIFlagPrototyped, isOptimized: false)
!1720 = !DISubroutineType(types: !1721)
!1721 = !{!1591, !1323, !1108, !1108, !1246}
!1722 = !DISubprogram(name: "insert", linkageName: "_ZNSt3__112basic_stringIcNS_11char_traitsIcEENS_9allocatorIcEEE6insertENS_11__wrap_iterIPKcEEc", scope: !1103, file: !205, line: 1040, type: !1723, isLocal: false, isDefinition: false, scopeLine: 1040, flags: DIFlagPublic | DIFlagPrototyped, isOptimized: false)
!1723 = !DISubroutineType(types: !1724)
!1724 = !{!1609, !1323, !1614, !1246}
!1725 = !DISubprogram(name: "insert", linkageName: "_ZNSt3__112basic_stringIcNS_11char_traitsIcEENS_9allocatorIcEEE6insertENS_11__wrap_iterIPKcEEmc", scope: !1103, file: !205, line: 1042, type: !1726, isLocal: false, isDefinition: false, scopeLine: 1042, flags: DIFlagPublic | DIFlagPrototyped, isOptimized: false)
!1726 = !DISubroutineType(types: !1727)
!1727 = !{!1609, !1323, !1614, !1108, !1246}
!1728 = !DISubprogram(name: "insert", linkageName: "_ZNSt3__112basic_stringIcNS_11char_traitsIcEENS_9allocatorIcEEE6insertENS_11__wrap_iterIPKcEESt16initializer_listIcE", scope: !1103, file: !205, line: 1063, type: !1729, isLocal: false, isDefinition: false, scopeLine: 1063, flags: DIFlagPublic | DIFlagPrototyped, isOptimized: false)
!1729 = !DISubroutineType(types: !1730)
!1730 = !{!1609, !1323, !1614, !1558}
!1731 = !DISubprogram(name: "erase", linkageName: "_ZNSt3__112basic_stringIcNS_11char_traitsIcEENS_9allocatorIcEEE5eraseEmm", scope: !1103, file: !205, line: 1067, type: !1732, isLocal: false, isDefinition: false, scopeLine: 1067, flags: DIFlagPublic | DIFlagPrototyped, isOptimized: false)
!1732 = !DISubroutineType(types: !1733)
!1733 = !{!1591, !1323, !1108, !1108}
!1734 = !DISubprogram(name: "erase", linkageName: "_ZNSt3__112basic_stringIcNS_11char_traitsIcEENS_9allocatorIcEEE5eraseENS_11__wrap_iterIPKcEE", scope: !1103, file: !205, line: 1069, type: !1735, isLocal: false, isDefinition: false, scopeLine: 1069, flags: DIFlagPublic | DIFlagPrototyped, isOptimized: false)
!1735 = !DISubroutineType(types: !1736)
!1736 = !{!1609, !1323, !1614}
!1737 = !DISubprogram(name: "erase", linkageName: "_ZNSt3__112basic_stringIcNS_11char_traitsIcEENS_9allocatorIcEEE5eraseENS_11__wrap_iterIPKcEES9_", scope: !1103, file: !205, line: 1071, type: !1738, isLocal: false, isDefinition: false, scopeLine: 1071, flags: DIFlagPublic | DIFlagPrototyped, isOptimized: false)
!1738 = !DISubroutineType(types: !1739)
!1739 = !{!1609, !1323, !1614, !1614}
!1740 = !DISubprogram(name: "replace", linkageName: "_ZNSt3__112basic_stringIcNS_11char_traitsIcEENS_9allocatorIcEEE7replaceEmmRKS5_", scope: !1103, file: !205, line: 1074, type: !1741, isLocal: false, isDefinition: false, scopeLine: 1074, flags: DIFlagPublic | DIFlagPrototyped, isOptimized: false)
!1741 = !DISubroutineType(types: !1742)
!1742 = !{!1591, !1323, !1108, !1108, !1333}
!1743 = !DISubprogram(name: "replace", linkageName: "_ZNSt3__112basic_stringIcNS_11char_traitsIcEENS_9allocatorIcEEE7replaceEmmNS_17basic_string_viewIcS2_EE", scope: !1103, file: !205, line: 1076, type: !1744, isLocal: false, isDefinition: false, scopeLine: 1076, flags: DIFlagPublic | DIFlagPrototyped, isOptimized: false)
!1744 = !DISubroutineType(types: !1745)
!1745 = !{!1591, !1323, !1108, !1108, !1372}
!1746 = !DISubprogram(name: "replace", linkageName: "_ZNSt3__112basic_stringIcNS_11char_traitsIcEENS_9allocatorIcEEE7replaceEmmRKS5_mm", scope: !1103, file: !205, line: 1077, type: !1747, isLocal: false, isDefinition: false, scopeLine: 1077, flags: DIFlagPublic | DIFlagPrototyped, isOptimized: false)
!1747 = !DISubroutineType(types: !1748)
!1748 = !{!1591, !1323, !1108, !1108, !1333, !1108, !1108}
!1749 = !DISubprogram(name: "replace", linkageName: "_ZNSt3__112basic_stringIcNS_11char_traitsIcEENS_9allocatorIcEEE7replaceEmmPKcm", scope: !1103, file: !205, line: 1086, type: !1750, isLocal: false, isDefinition: false, scopeLine: 1086, flags: DIFlagPublic | DIFlagPrototyped, isOptimized: false)
!1750 = !DISubroutineType(types: !1751)
!1751 = !{!1591, !1323, !1108, !1108, !1601, !1108}
!1752 = !DISubprogram(name: "replace", linkageName: "_ZNSt3__112basic_stringIcNS_11char_traitsIcEENS_9allocatorIcEEE7replaceEmmPKc", scope: !1103, file: !205, line: 1087, type: !1753, isLocal: false, isDefinition: false, scopeLine: 1087, flags: DIFlagPublic | DIFlagPrototyped, isOptimized: false)
!1753 = !DISubroutineType(types: !1754)
!1754 = !{!1591, !1323, !1108, !1108, !1601}
!1755 = !DISubprogram(name: "replace", linkageName: "_ZNSt3__112basic_stringIcNS_11char_traitsIcEENS_9allocatorIcEEE7replaceEmmmc", scope: !1103, file: !205, line: 1088, type: !1756, isLocal: false, isDefinition: false, scopeLine: 1088, flags: DIFlagPublic | DIFlagPrototyped, isOptimized: false)
!1756 = !DISubroutineType(types: !1757)
!1757 = !{!1591, !1323, !1108, !1108, !1108, !1246}
!1758 = !DISubprogram(name: "replace", linkageName: "_ZNSt3__112basic_stringIcNS_11char_traitsIcEENS_9allocatorIcEEE7replaceENS_11__wrap_iterIPKcEES9_RKS5_", scope: !1103, file: !205, line: 1090, type: !1759, isLocal: false, isDefinition: false, scopeLine: 1090, flags: DIFlagPublic | DIFlagPrototyped, isOptimized: false)
!1759 = !DISubroutineType(types: !1760)
!1760 = !{!1591, !1323, !1614, !1614, !1333}
!1761 = !DISubprogram(name: "replace", linkageName: "_ZNSt3__112basic_stringIcNS_11char_traitsIcEENS_9allocatorIcEEE7replaceENS_11__wrap_iterIPKcEES9_NS_17basic_string_viewIcS2_EE", scope: !1103, file: !205, line: 1092, type: !1762, isLocal: false, isDefinition: false, scopeLine: 1092, flags: DIFlagPublic | DIFlagPrototyped, isOptimized: false)
!1762 = !DISubroutineType(types: !1763)
!1763 = !{!1591, !1323, !1614, !1614, !1372}
!1764 = !DISubprogram(name: "replace", linkageName: "_ZNSt3__112basic_stringIcNS_11char_traitsIcEENS_9allocatorIcEEE7replaceENS_11__wrap_iterIPKcEES9_S8_m", scope: !1103, file: !205, line: 1094, type: !1765, isLocal: false, isDefinition: false, scopeLine: 1094, flags: DIFlagPublic | DIFlagPrototyped, isOptimized: false)
!1765 = !DISubroutineType(types: !1766)
!1766 = !{!1591, !1323, !1614, !1614, !1601, !1108}
!1767 = !DISubprogram(name: "replace", linkageName: "_ZNSt3__112basic_stringIcNS_11char_traitsIcEENS_9allocatorIcEEE7replaceENS_11__wrap_iterIPKcEES9_S8_", scope: !1103, file: !205, line: 1096, type: !1768, isLocal: false, isDefinition: false, scopeLine: 1096, flags: DIFlagPublic | DIFlagPrototyped, isOptimized: false)
!1768 = !DISubroutineType(types: !1769)
!1769 = !{!1591, !1323, !1614, !1614, !1601}
!1770 = !DISubprogram(name: "replace", linkageName: "_ZNSt3__112basic_stringIcNS_11char_traitsIcEENS_9allocatorIcEEE7replaceENS_11__wrap_iterIPKcEES9_mc", scope: !1103, file: !205, line: 1098, type: !1771, isLocal: false, isDefinition: false, scopeLine: 1098, flags: DIFlagPublic | DIFlagPrototyped, isOptimized: false)
!1771 = !DISubroutineType(types: !1772)
!1772 = !{!1591, !1323, !1614, !1614, !1108, !1246}
!1773 = !DISubprogram(name: "replace", linkageName: "_ZNSt3__112basic_stringIcNS_11char_traitsIcEENS_9allocatorIcEEE7replaceENS_11__wrap_iterIPKcEES9_St16initializer_listIcE", scope: !1103, file: !205, line: 1109, type: !1774, isLocal: false, isDefinition: false, scopeLine: 1109, flags: DIFlagPublic | DIFlagPrototyped, isOptimized: false)
!1774 = !DISubroutineType(types: !1775)
!1775 = !{!1591, !1323, !1614, !1614, !1558}
!1776 = !DISubprogram(name: "copy", linkageName: "_ZNKSt3__112basic_stringIcNS_11char_traitsIcEENS_9allocatorIcEEE4copyEPcmm", scope: !1103, file: !205, line: 1113, type: !1777, isLocal: false, isDefinition: false, scopeLine: 1113, flags: DIFlagPublic | DIFlagPrototyped, isOptimized: false)
!1777 = !DISubroutineType(types: !1778)
!1778 = !{!1108, !1587, !1779, !1108, !1108}
!1779 = !DIDerivedType(tag: DW_TAG_pointer_type, baseType: !1246, size: 64)
!1780 = !DISubprogram(name: "substr", linkageName: "_ZNKSt3__112basic_stringIcNS_11char_traitsIcEENS_9allocatorIcEEE6substrEmm", scope: !1103, file: !205, line: 1115, type: !1781, isLocal: false, isDefinition: false, scopeLine: 1115, flags: DIFlagPublic | DIFlagPrototyped, isOptimized: false)
!1781 = !DISubroutineType(types: !1782)
!1782 = !{!1103, !1587, !1108, !1108}
!1783 = !DISubprogram(name: "swap", linkageName: "_ZNSt3__112basic_stringIcNS_11char_traitsIcEENS_9allocatorIcEEE4swapERS5_", scope: !1103, file: !205, line: 1118, type: !1784, isLocal: false, isDefinition: false, scopeLine: 1118, flags: DIFlagPublic | DIFlagPrototyped, isOptimized: false)
!1784 = !DISubroutineType(types: !1785)
!1785 = !{null, !1323, !1591}
!1786 = !DISubprogram(name: "c_str", linkageName: "_ZNKSt3__112basic_stringIcNS_11char_traitsIcEENS_9allocatorIcEEE5c_strEv", scope: !1103, file: !205, line: 1127, type: !1787, isLocal: false, isDefinition: false, scopeLine: 1127, flags: DIFlagPublic | DIFlagPrototyped, isOptimized: false)
!1787 = !DISubroutineType(types: !1788)
!1788 = !{!1601, !1587}
!1789 = !DISubprogram(name: "data", linkageName: "_ZNKSt3__112basic_stringIcNS_11char_traitsIcEENS_9allocatorIcEEE4dataEv", scope: !1103, file: !205, line: 1129, type: !1787, isLocal: false, isDefinition: false, scopeLine: 1129, flags: DIFlagPublic | DIFlagPrototyped, isOptimized: false)
!1790 = !DISubprogram(name: "get_allocator", linkageName: "_ZNKSt3__112basic_stringIcNS_11char_traitsIcEENS_9allocatorIcEEE13get_allocatorEv", scope: !1103, file: !205, line: 1136, type: !1791, isLocal: false, isDefinition: false, scopeLine: 1136, flags: DIFlagPublic | DIFlagPrototyped, isOptimized: false)
!1791 = !DISubroutineType(types: !1792)
!1792 = !{!1329, !1587}
!1793 = !DISubprogram(name: "find", linkageName: "_ZNKSt3__112basic_stringIcNS_11char_traitsIcEENS_9allocatorIcEEE4findERKS5_m", scope: !1103, file: !205, line: 1139, type: !1794, isLocal: false, isDefinition: false, scopeLine: 1139, flags: DIFlagPublic | DIFlagPrototyped, isOptimized: false)
!1794 = !DISubroutineType(types: !1795)
!1795 = !{!1108, !1587, !1333, !1108}
!1796 = !DISubprogram(name: "find", linkageName: "_ZNKSt3__112basic_stringIcNS_11char_traitsIcEENS_9allocatorIcEEE4findENS_17basic_string_viewIcS2_EEm", scope: !1103, file: !205, line: 1141, type: !1797, isLocal: false, isDefinition: false, scopeLine: 1141, flags: DIFlagPublic | DIFlagPrototyped, isOptimized: false)
!1797 = !DISubroutineType(types: !1798)
!1798 = !{!1108, !1587, !1372, !1108}
!1799 = !DISubprogram(name: "find", linkageName: "_ZNKSt3__112basic_stringIcNS_11char_traitsIcEENS_9allocatorIcEEE4findEPKcmm", scope: !1103, file: !205, line: 1142, type: !1800, isLocal: false, isDefinition: false, scopeLine: 1142, flags: DIFlagPublic | DIFlagPrototyped, isOptimized: false)
!1800 = !DISubroutineType(types: !1801)
!1801 = !{!1108, !1587, !1601, !1108, !1108}
!1802 = !DISubprogram(name: "find", linkageName: "_ZNKSt3__112basic_stringIcNS_11char_traitsIcEENS_9allocatorIcEEE4findEPKcm", scope: !1103, file: !205, line: 1144, type: !1803, isLocal: false, isDefinition: false, scopeLine: 1144, flags: DIFlagPublic | DIFlagPrototyped, isOptimized: false)
!1803 = !DISubroutineType(types: !1804)
!1804 = !{!1108, !1587, !1601, !1108}
